(lp0
(lp1
I230
aI536
aI788
aI230
aI695
aa(lp2
I230
aI536
aI842
aI230
aI176
aI559
aI6
aI865
aI861
aI248
aI695
aa(lp3
I230
aI709
aI603
aI842
aI230
aI541
aI849
aI883
aI791
aI230
aI176
aI788
aI688
aI265
aa(lp4
I230
aI883
aI791
aI176
aI640
aI253
aI788
aI230
aI709
aI536
aa(lp5
I616
aI714
aI230
aI176
aI862
aI230
aI559
aI6
aI865
aI688
aI248
aa(lp6
I230
aI261
aI791
aI7
aI647
aI230
aI291
aa(lp7
I661
aI502
aI260
aI478
aI788
aI492
aI160
aI847
aI791
aI291
aa(lp8
I688
aI502
aI260
aI503
aI103
aI688
aI5
aa(lp9
I357
aI538
aI142
aI8
aI260
aI416
aI599
aI442
aI260
aI647
aI230
aI291
aa(lp10
I8
aI416
aI442
aI260
aI538
aI647
aI230
aI291
aa(lp11
I230
aI32
aI130
aI416
aI383
aI130
aI797
aI788
aI688
aI853
aa(lp12
I230
aI130
aI416
aI313
aI135
aI785
aI230
aI185
aa(lp13
I230
aI256
aI416
aI230
aI823
aI383
aI130
aI788
aI688
aI853
aI633
aI98
aa(lp14
I32
aI416
aI383
aI410
aI467
aI788
aI442
aI853
aa(lp15
I142
aI410
aI538
aI135
aI785
aI688
aI98
aa(lp16
I230
aI461
aI640
aI498
aI230
aI515
aI898
aa(lp17
I230
aI333
aI647
aI230
aI16
aI898
aa(lp18
I230
aI333
aI36
aI81
aI498
aI861
aI227
aI898
aa(lp19
I333
aI874
aI647
aI519
aI620
aI898
aa(lp20
I688
aI461
aI640
aI230
aI333
aI416
aI640
aI498
aI230
aI16
aI898
aa(lp21
I230
aI176
aI416
aI230
aI461
aI52
aI788
aI230
aI778
aI647
aI688
aI615
aa(lp22
I230
aI60
aI461
aI416
aI230
aI176
aI52
aI788
aI545
aI855
aI570
aI788
aI230
aI383
aI778
aa(lp23
I142
aI385
aI788
aI230
aI778
aI842
aI80
aI73
aI257
aI688
aI270
aa(lp24
I142
aI60
aI493
aI385
aI222
aI647
aI688
aI80
aI788
aI230
aI531
aI383
aI778
aI416
aI361
aI258
aI365
aI865
aI688
aI145
aa(lp25
I142
aI60
aI493
aI385
aI788
aI230
aI705
aI383
aI778
aa(lp26
I142
aI260
aI167
aI785
aI230
aI771
aa(lp27
I142
aI260
aI821
aI143
aI26
aI664
aI542
aI64
aa(lp28
I142
aI442
aI260
aI821
aI88
aI688
aI687
aI665
aa(lp29
I142
aI442
aI260
aI167
aI446
aI230
aI51
aI687
aI583
aa(lp30
I142
aI442
aI398
aI88
aI542
aa(lp31
I230
aI493
aI416
aI32
aI461
aI851
aI788
aI688
aI355
aI781
aI791
aI230
aI51
aI249
aa(lp32
I230
aI352
aI383
aI416
aI32
aI461
aI851
aI865
aI688
aI355
aI791
aI750
aI399
aa(lp33
I230
aI461
aI811
aI810
aI865
aI688
aI355
aI791
aI688
aI249
aI740
aa(lp34
I230
aI55
aI461
aI36
aI865
aI688
aI355
aI791
aI750
aI51
aI399
aI842
aI230
aI308
aI546
aa(lp35
I688
aI461
aI788
aI688
aI153
aI865
aI688
aI355
aI791
aI230
aI217
aI640
aI264
aa(lp36
I230
aI91
aI881
aI788
aI26
aI230
aI460
aI209
aa(lp37
I230
aI502
aI91
aI847
aI230
aI291
aI640
aI13
aI788
aI26
aI688
aI304
aI791
aI688
aI291
aa(lp38
I230
aI502
aI91
aI640
aI154
aI354
aI230
aI4
aI837
aI64
aa(lp39
I230
aI495
aI327
aI416
aI74
aI91
aI13
aI788
aI26
aI230
aI4
aI64
aa(lp40
I230
aI573
aI91
aI875
aI26
aI230
aI542
aI64
aa(lp41
I230
aI493
aI461
aa(lp42
I230
aI493
aI461
aI640
aI647
aI230
aI205
aa(lp43
I230
aI493
aI461
aI135
aI647
aI289
aI791
aI8
aI398
aa(lp44
I493
aI726
aI461
aI135
aI647
aI644
aI791
aI35
aa(lp45
I213
aI791
aI230
aI493
aI461
aa(lp46
I230
aI125
aI791
aI649
aI467
aI810
aI230
aI331
aI801
aa(lp47
I230
aI317
aI791
aI681
aI788
aI230
aI331
aI801
aa(lp48
I230
aI566
aI791
aI681
aI467
aI103
aI230
aI331
aI450
aa(lp49
I177
aI681
aI788
aI230
aI331
aI801
aa(lp50
I357
aI640
aI230
aI331
aI801
aI842
aI447
aI343
aI415
aI716
aa(lp51
I230
aI442
aI416
aI272
aI84
aI842
aI545
aI362
aI733
aI788
aI545
aI291
aa(lp52
I230
aI8
aI416
aI272
aI91
aI163
aI788
aI26
aI688
aI304
aI791
aI230
aI291
aa(lp53
I230
aI8
aI49
aI875
aI26
aI688
aI304
aI791
aI545
aI291
aa(lp54
I183
aI272
aI416
aI442
aI91
aI13
aI354
aI230
aI291
aa(lp55
I8
aI416
aI272
aI49
aI13
aI137
aI688
aI304
aI791
aI500
aI291
aa(lp56
I230
aI32
aI461
aI466
aI788
aI688
aI853
aa(lp57
I230
aI32
aI461
aI888
aI853
aa(lp58
I230
aI55
aI810
aI611
aI788
aI688
aI458
aa(lp59
I688
aI764
aI461
aI698
aI647
aI688
aI344
aa(lp60
I688
aI826
aI174
aI107
aI334
aI640
aI816
aI788
aI688
aI853
aI116
aI641
aI274
aI772
aI65
aa(lp61
I861
aI752
aI34
aI78
aI647
aI230
aI568
aI842
aI142
aI824
aI865
aI819
aI362
aa(lp62
I230
aI34
aI647
aI688
aI568
aI498
aI819
aI74
aI277
aI78
aI842
aI142
aI824
aI865
aI819
aI362
aa(lp63
I679
aI34
aI647
aI568
aI842
aI819
aI142
aI696
aI824
aa(lp64
I688
aI752
aI34
aI889
aI26
aI356
aI819
aI824
aa(lp65
I688
aI748
aI728
aI640
aI135
aI647
aI688
aI568
aI842
aI142
aI824
aI865
aI819
aI362
aa(lp66
I230
aI493
aI416
aI383
aI461
aI323
aI865
aI688
aI145
aa(lp67
I230
aI493
aI723
aI461
aI842
aI230
aI383
aI758
aI416
aI32
aI675
aI258
aI865
aI688
aI145
aa(lp68
I230
aI541
aI849
aI791
aI230
aI493
aI333
aa(lp69
I230
aI873
aI462
aa(lp70
I541
aI849
aI791
aI493
aI416
aI383
aI171
aI462
aa(lp71
I230
aI176
aI52
aI788
aI230
aI642
aI241
aI810
aI258
aI865
aI688
aI145
aa(lp72
I230
aI176
aI788
aI545
aI751
aI323
aI865
aI688
aI145
aa(lp73
I230
aI494
aI383
aI513
aI176
aI842
aI500
aI829
aI13
aI677
aI688
aI585
aa(lp74
I230
aI383
aI416
aI515
aI513
aI176
aI842
aI442
aI387
aI466
aI788
aI597
aI304
aa(lp75
I383
aI416
aI515
aI44
aI466
aI788
aI545
aI304
aa(lp76
I230
aI493
aI461
aI640
aI135
aI633
aI750
aI138
aI842
aI750
aI548
aI647
aI289
aI791
aI641
aa(lp77
I230
aI493
aI461
aI135
aI647
aI230
aI172
aI693
aI872
aa(lp78
I230
aI493
aI461
aI78
aI647
aI688
aI644
aI791
aI230
aI836
aI157
aa(lp79
I230
aI493
aI461
aI78
aI143
aI26
aI685
aI865
aI230
aI836
aI157
aa(lp80
I230
aI461
aI135
aI647
aI861
aI562
aI308
aI143
aI26
aI548
aa(lp81
I230
aI461
aI894
aI29
aI230
aI60
aI585
aa(lp82
I230
aI461
aI643
aI29
aI230
aI585
aa(lp83
I32
aI416
aI383
aI643
aI461
aa(lp84
I688
aI528
aI461
aI592
aI29
aI688
aI15
aa(lp85
I688
aI839
aI234
aI416
aI493
aI528
aI461
aI640
aI537
aI29
aI688
aI587
aa(lp86
I230
aI541
aI849
aI791
aI230
aI515
aI176
aI842
aI230
aI8
aI675
aa(lp87
I230
aI231
aI791
aI230
aI515
aI176
aI842
aI442
aI387
aa(lp88
I230
aI515
aI176
aI498
aI230
aI8
aI675
aa(lp89
I230
aI515
aI176
aI842
aI442
aI387
aI258
aI865
aI688
aI145
aa(lp90
I230
aI405
aI176
aI842
aI442
aI387
aI323
aI807
aI688
aI145
aa(lp91
I230
aI8
aI416
aI493
aI91
aI238
aI137
aI230
aI91
aI290
aa(lp92
I230
aI8
aI91
aI774
aI671
aI788
aI230
aI91
aI290
aa(lp93
I230
aI8
aI91
aI640
aI774
aI671
aI788
aI230
aI542
aI840
aa(lp94
I8
aI91
aI774
aI671
aa(lp95
I8
aI91
aI774
aI750
aI281
aI788
aI230
aI840
aa(lp96
I361
aI383
aI91
aI416
aI230
aI493
aI416
aI383
aI91
aI788
aI230
aI184
aI625
aa(lp97
I142
aI858
aI260
aI647
aI230
aI877
aI791
aI838
aI853
aa(lp98
I142
aI260
aI541
aI26
aI777
aI101
aa(lp99
I142
aI516
aI361
aI383
aI81
aI688
aI800
aI150
aI508
aI462
aI777
aI800
aa(lp100
I142
aI149
aI260
aI462
aI777
aI800
aI647
aI243
aI853
aa(lp101
I230
aI91
aI842
aI473
aI53
aa(lp102
I230
aI231
aI791
aI230
aI442
aI91
aI842
aI230
aI327
aI462
aI416
aI899
aI27
aI67
aa(lp103
I230
aI442
aI91
aI842
aI230
aI327
aI462
aI36
aa(lp104
I230
aI60
aI442
aI91
aI842
aI230
aI327
aI512
aa(lp105
I602
aI91
aI36
aI788
aI713
aI301
aa(lp106
I230
aI527
aI640
aI774
aI539
aI425
aI137
aI230
aI91
aI290
aI13
aI647
aI230
aI404
aa(lp107
I230
aI60
aI91
aI774
aI137
aI688
aI290
aa(lp108
I230
aI60
aI91
aI470
aI788
aI688
aI91
aI290
aI13
aI137
aI688
aI404
aa(lp109
I230
aI60
aI91
aI842
aI8
aI482
aI416
aI493
aI506
aI238
aI137
aI230
aI91
aI290
aa(lp110
I230
aI60
aI32
aI260
aI640
aI774
aI137
aI230
aI91
aI290
aI13
aI137
aI230
aI404
aa(lp111
I230
aI541
aI849
aI791
aI230
aI181
aI842
aI101
aI647
aI688
aI690
aa(lp112
I230
aI231
aI791
aI230
aI383
aI91
aI842
aI800
aI260
aI546
aI641
aa(lp113
I541
aI849
aI791
aI230
aI181
aI416
aI800
aI668
aI647
aI688
aI690
aa(lp114
I510
aI797
aI785
aI762
aI294
aI114
aa(lp115
I688
aI383
aI410
aI538
aI135
aI788
aI688
aI481
aa(lp116
I230
aI686
aI552
aI842
aI819
aI109
aI416
aI461
aa(lp117
I230
aI686
aI645
aI26
aI819
aI109
aI842
aI688
aI461
aI323
aI788
aa(lp118
I725
aI552
aI26
aI109
aI416
aI461
aa(lp119
I679
aI34
aI552
aI230
aI879
aI26
aI25
aI870
aI647
aI197
aI898
aa(lp120
I743
aI409
aI416
aI461
aI552
aI788
aI230
aI74
aI737
aa(lp121
I230
aI60
aI106
aI52
aI788
aI230
aI737
aI842
aI230
aI461
aa(lp122
I230
aI25
aI106
aI52
aI788
aI230
aI737
aI842
aI230
aI461
aa(lp123
I106
aI52
aI788
aI435
aI842
aI461
aa(lp124
I106
aI466
aI788
aI435
aI842
aI60
aI383
aI461
aa(lp125
I688
aI106
aI640
aI466
aI788
aI230
aI435
aI842
aI230
aI882
aa(lp126
I230
aI32
aI416
aI383
aI461
aI135
aI788
aI236
aI384
aI323
aI320
aI230
aI270
aa(lp127
I230
aI32
aI416
aI383
aI461
aI135
aI788
aI500
aI236
aI384
aI323
aI320
aI791
aI230
aI270
aa(lp128
I230
aI461
aI323
aI320
aI791
aI230
aI270
aI81
aI135
aI788
aI545
aI236
aI384
aa(lp129
I461
aI323
aI320
aI270
aa(lp130
I25
aI32
aI416
aI383
aI461
aI323
aI320
aI270
aa(lp131
I230
aI176
aI115
aI785
aI230
aI580
aI788
aI457
aI818
aa(lp132
I230
aI515
aI176
aI584
aI320
aI788
aI230
aI457
aI442
aI642
aa(lp133
I230
aI515
aI520
aI176
aI851
aI849
aI304
aI810
aI647
aI230
aI442
aI366
aa(lp134
I230
aI405
aI513
aI176
aI842
aI383
aI195
aI416
aI658
aI832
aI230
aI442
aI457
aI711
aa(lp135
I230
aI513
aI176
aI537
aI788
aI230
aI442
aI457
aI282
aa(lp136
I230
aI541
aI849
aI883
aI791
aI230
aI381
aI490
aa(lp137
I230
aI55
aI32
aI416
aI383
aI461
aa(lp138
I230
aI375
aI490
aI461
aI231
aI842
aI230
aI504
aI622
aI788
aI500
aI462
aa(lp139
I230
aI375
aI490
aI461
aI36
aI647
aI230
aI184
aI820
aa(lp140
I231
aI791
aI230
aI375
aI490
aa(lp141
I230
aI586
aI461
aI416
aI230
aI493
aI416
aI515
aI461
aI36
aI788
aI449
aI556
aI791
aI230
aI212
aI82
aI842
aI230
aI515
aI176
aI643
aI550
aI278
aa(lp142
I230
aI383
aI403
aI230
aI493
aI403
aI416
aI230
aI515
aI176
aI222
aI788
aI230
aI383
aI435
aI896
aI633
aI230
aI270
aa(lp143
I824
aI416
aI385
aI790
aI103
aI81
aI643
aI788
aI688
aI435
aa(lp144
I142
aI385
aI416
aI230
aI176
aI611
aI788
aI230
aI435
aa(lp145
I142
aI385
aI416
aI361
aI176
aI36
aI788
aI435
aa(lp146
I861
aI351
aI328
aI135
aI788
aI230
aI784
aI842
aI545
aI245
aI810
aa(lp147
I861
aI328
aI640
aI478
aI576
aI507
aa(lp148
I230
aI883
aI791
aI230
aI667
aI328
aI788
aI230
aI610
aI779
aa(lp149
I328
aI478
aI788
aI230
aI367
aI631
aa(lp150
I688
aI667
aI328
aI640
aI478
aI788
aI230
aI631
aa(lp151
I230
aI263
aI640
aI135
aI788
aI688
aI481
aI323
aI849
aI865
aI688
aI145
aa(lp152
I861
aI710
aI882
aI387
aI76
aI347
aI772
aI230
aI99
aa(lp153
I230
aI60
aI263
aI135
aI647
aI230
aI344
aI323
aI849
aI865
aI688
aI145
aa(lp154
I230
aI60
aI461
aI323
aI849
aI865
aI688
aI145
aI81
aI135
aI788
aI853
aa(lp155
I60
aI383
aI416
aI32
aI263
aI323
aI849
aa(lp156
I230
aI91
aI640
aI659
aI865
aI230
aI342
aI647
aI880
aa(lp157
I230
aI60
aI91
aI135
aI788
aI230
aI342
aI865
aI688
aI219
aI438
aa(lp158
I91
aI36
aI788
aI230
aI342
aI647
aI230
aI708
aa(lp159
I688
aI32
aI98
aI91
aI714
aI230
aI309
aI647
aI500
aI512
aa(lp160
I688
aI149
aI91
aI470
aI788
aI688
aI342
aI762
aI230
aI330
aI791
aI98
aa(lp161
I142
aI667
aI148
aI478
aI788
aI230
aI324
aa(lp162
I142
aI667
aI148
aI478
aI788
aI232
aa(lp163
I142
aI148
aI538
aI478
aI788
aI230
aI324
aa(lp164
I142
aI148
aI478
aI788
aI230
aI324
aa(lp165
I142
aI148
aI36
aI788
aI230
aI822
aI324
aa(lp166
I230
aI32
aI461
aI52
aI788
aI230
aI266
aI680
aI143
aI26
aI230
aI585
aa(lp167
I230
aI194
aI461
aI788
aI688
aI441
aI17
aa(lp168
I230
aI194
aI882
aI788
aI230
aI266
aI680
aa(lp169
I194
aI882
aI466
aI810
aI788
aI383
aI540
aa(lp170
I688
aI759
aI170
aI605
aI640
aI746
aI849
aI647
aI688
aI800
aI172
aa(lp171
I230
aI34
aI714
aI230
aI91
aI788
aI819
aI588
aI416
aI307
aI91
aI788
aI819
aI829
aa(lp172
I230
aI34
aI842
aI230
aI91
aI788
aI819
aI829
aI416
aI230
aI91
aI788
aI819
aI732
aa(lp173
I230
aI166
aI36
aI865
aI230
aI436
aI585
aI842
aI142
aI60
aI260
aI36
aI788
aI819
aa(lp174
I230
aI25
aI12
aI34
aI36
aI865
aI230
aI568
aI585
aI842
aI230
aI91
aI788
aI819
aI829
aI416
aI307
aI788
aI819
aI732
aa(lp175
I142
aI260
aI538
aI478
aI788
aI230
aI34
aI36
aI647
aI230
aI568
aa(lp176
I861
aI748
aI493
aI34
aI498
aI230
aI271
aI416
aI230
aI228
aI416
aI230
aI461
aI143
aI26
aI819
aI498
aI688
aI655
aI327
aI228
aa(lp177
I230
aI34
aI416
aI461
aI538
aI874
aI647
aI502
aI63
aI416
aI36
aI487
aa(lp178
I493
aI34
aI842
aI321
aI715
aI36
aI143
aI26
aI461
aI842
aI688
aI655
aI715
aa(lp179
I688
aI34
aI416
aI688
aI461
aI538
aI570
aI498
aI398
aI788
aI378
aI373
aa(lp180
I34
aI416
aI819
aI60
aI461
aI874
aI849
aI896
aI36
aI788
aI684
aI864
aa(lp181
I230
aI493
aI416
aI383
aI91
aI788
aI230
aI93
aI791
aI98
aI842
aI853
aI647
aI688
aI690
aa(lp182
I230
aI130
aI640
aI802
aI788
aI230
aI708
aa(lp183
I230
aI371
aI91
aI868
aI647
aI688
aI98
aa(lp184
I688
aI181
aI640
aI868
aI788
aI688
aI98
aa(lp185
I688
aI383
aI91
aI609
aI647
aI688
aI98
aI633
aI230
aI184
aI240
aa(lp186
I230
aI493
aI461
aI52
aI788
aI688
aI249
aa(lp187
I230
aI176
aI648
aI788
aI230
aI475
aI323
aI810
aI865
aI230
aI493
aI461
aI788
aI230
aI379
aa(lp188
I230
aI176
aI648
aI788
aI355
aI791
aI230
aI51
aI66
aI862
aI230
aI55
aI493
aI461
aI258
aI849
aI865
aI641
aa(lp189
I230
aI461
aI788
aI688
aI680
aI791
aI230
aI246
aI258
aI865
aI230
aI176
aI788
aI688
aI64
aa(lp190
I493
aI461
aI842
aI327
aI379
aI788
aI360
aI849
aI865
aI688
aI176
aI788
aI688
aI64
aa(lp191
I861
aI752
aI34
aI727
aI657
aI230
aI60
aI618
aI874
aI862
aI230
aI589
aI788
aI186
aa(lp192
I861
aI679
aI34
aI474
aI688
aI145
aI842
aI230
aI161
aI874
aI862
aI230
aI407
aI788
aI186
aa(lp193
I861
aI679
aI166
aI143
aI26
aI230
aI618
aI874
aI647
aI230
aI40
aa(lp194
I230
aI34
aI207
aI230
aI618
aI390
aI640
aI647
aI230
aI598
aI40
aa(lp195
I230
aI34
aI727
aI842
aI230
aI210
aI647
aI230
aI40
aa(lp196
I230
aI493
aI461
aI647
aI230
aI853
aI877
aa(lp197
I230
aI493
aI461
aI135
aI647
aI230
aI877
aa(lp198
I230
aI515
aI796
aI842
aI230
aI675
aI78
aI647
aI688
aI636
aI853
aa(lp199
I230
aI405
aI461
aI135
aI647
aI230
aI184
aI877
aa(lp200
I720
aI110
aI461
aI135
aI647
aI184
aI877
aa(lp201
I230
aI493
aI416
aI383
aI176
aI135
aI647
aI289
aI791
aI230
aI270
aa(lp202
I230
aI759
aI44
aI648
aI788
aI230
aI270
aI514
aa(lp203
I230
aI44
aI647
aI230
aI270
aa(lp204
I230
aI44
aI647
aI230
aI270
aa(lp205
I142
aI578
aI176
aI36
aI647
aI19
aa(lp206
I230
aI60
aI383
aI176
aI842
aI204
aI387
aI135
aI285
aI230
aI15
aa(lp207
I230
aI383
aI176
aI135
aI788
aI230
aI17
aa(lp208
I230
aI383
aI176
aI78
aI788
aI688
aI680
aa(lp209
I230
aI383
aI135
aI788
aI405
aI17
aa(lp210
I688
aI371
aI383
aI176
aI258
aI762
aI279
aI26
aI445
aI842
aa(lp211
I230
aI493
aI416
aI383
aI176
aI416
aI461
aI788
aI230
aI513
aI435
aa(lp212
I230
aI493
aI416
aI383
aI176
aI638
aI320
aI842
aI230
aI493
aI416
aI383
aI461
aI788
aI230
aI513
aI737
aa(lp213
I230
aI32
aI461
aI416
aI493
aI176
aI151
aI230
aI194
aI737
aa(lp214
I32
aI461
aI416
aI493
aI176
aI788
aI688
aI435
aa(lp215
I385
aI416
aI824
aI178
aI503
aI61
aa(lp216
I230
aI229
aI647
aI434
aI196
aI640
aI884
aI546
aI230
aI491
aI81
aI230
aI383
aI461
aI258
aI788
aa(lp217
I230
aI229
aI640
aI788
aI688
aI481
aI633
aI230
aI383
aI461
aI788
aI230
aI379
aa(lp218
I230
aI60
aI383
aI461
aI788
aI230
aI379
aI416
aI230
aI229
aI647
aI448
aI33
aI788
aI230
aI471
aa(lp219
I652
aI120
aI230
aI882
aa(lp220
I383
aI461
aI135
aI647
aI30
aI647
aI289
aI791
aI229
aI874
aI647
aI139
aI83
aa(lp221
I230
aI461
aI811
aI810
aI842
aI545
aI453
aI369
aa(lp222
I230
aI461
aI216
aI597
aI829
aI320
aI137
aI29
aI230
aI712
aI791
aI525
aa(lp223
I230
aI461
aI285
aI230
aI51
aI509
aa(lp224
I230
aI461
aI842
aI230
aI839
aI352
aI416
aI32
aI462
aI640
aI29
aI230
aI51
aI509
aa(lp225
I688
aI461
aI640
aI323
aI865
aI688
aI145
aI137
aI29
aI230
aI571
aI791
aI492
aa(lp226
I230
aI60
aI383
aI461
aI619
aI498
aI750
aI863
aa(lp227
I230
aI60
aI383
aI461
aI498
aI230
aI731
aI755
aa(lp228
I230
aI60
aI383
aI461
aI498
aI230
aI898
aI258
aI849
aI865
aI688
aI145
aa(lp229
I60
aI226
aI498
aI230
aI457
aI141
aa(lp230
I688
aI60
aI461
aI640
aI498
aI230
aI141
aI416
aI323
aI849
aI865
aI688
aI145
aa(lp231
I230
aI234
aI383
aI416
aI493
aI528
aI803
aa(lp232
I230
aI541
aI849
aI353
aI791
aI861
aI803
aa(lp233
I861
aI803
aI648
aI804
aI762
aI688
aI694
aa(lp234
I849
aI541
aI353
aI791
aI861
aI803
aa(lp235
I849
aI541
aI353
aI791
aI843
aI110
aI803
aa(lp236
I230
aI32
aI416
aI272
aI176
aI774
aI137
aI230
aI654
aa(lp237
I32
aI176
aI774
aI647
aI289
aI791
aI230
aI140
aI242
aa(lp238
I176
aI135
aI143
aI26
aI158
aI590
aI281
aa(lp239
I688
aI346
aI791
aI230
aI713
aI272
aI416
aI493
aI176
aI46
aI98
aa(lp240
I688
aI713
aI176
aI640
aI46
aI98
aa(lp241
I230
aI764
aI472
aI762
aI230
aI89
aI314
aa(lp242
I230
aI34
aI647
aI230
aI405
aI412
aI549
aI230
aI493
aI416
aI383
aI461
aa(lp243
I230
aI34
aI549
aI230
aI461
aI647
aI230
aI24
aI820
aa(lp244
I230
aI34
aI549
aI230
aI461
aI647
aI230
aI702
aI344
aa(lp245
I25
aI728
aI134
aI810
aI814
aI230
aI493
aI416
aI383
aI461
aI847
aI230
aI64
aa(lp246
I230
aI669
aI881
aI91
aI425
aI416
aI230
aI60
aI91
aa(lp247
I230
aI432
aI881
aI230
aI60
aI456
aa(lp248
I230
aI432
aI202
aI230
aI91
aI416
aI795
aa(lp249
I230
aI60
aI91
aI640
aI36
aI788
aI230
aI637
aI669
aI390
aI714
aI91
aI425
aI647
aI641
aa(lp250
I230
aI60
aI352
aI839
aI416
aI32
aI91
aI478
aI788
aI416
aI774
aI320
aI791
aI230
aI480
aI669
aa(lp251
I230
aI176
aI258
aI544
aI81
aI52
aI810
aI647
aI861
aI248
aI15
aa(lp252
I230
aI176
aI90
aI788
aI861
aI248
aI15
aa(lp253
I230
aI423
aI176
aI36
aI788
aI861
aI248
aI15
aa(lp254
I861
aI272
aI176
aI811
aI788
aI230
aI47
aI695
aI15
aI633
aI750
aI345
aI92
aI842
aI315
aI416
aI444
aa(lp255
I688
aI32
aI176
aI640
aI36
aI647
aI230
aI536
aI15
aa(lp256
I230
aI493
aI176
aI788
aI230
aI121
aI416
aI230
aI405
aI461
aI788
aI230
aI737
aa(lp257
I230
aI176
aI416
aI230
aI461
aI622
aI865
aI777
aI800
aI137
aI553
aI230
aI172
aa(lp258
I230
aI176
aI851
aI788
aI230
aI778
aI416
aI230
aI461
aI851
aI788
aI230
aI435
aa(lp259
I230
aI461
aI643
aI788
aI230
aI737
aI81
aI230
aI493
aI176
aI648
aI788
aI230
aI511
aa(lp260
I230
aI159
aI493
aI461
aI788
aI230
aI435
aI26
aI688
aI689
aI416
aI230
aI493
aI176
aI788
aI230
aI511
aI26
aI688
aI747
aa(lp261
I230
aI32
aI416
aI383
aI130
aI647
aI230
aI193
aa(lp262
I230
aI130
aI868
aI647
aI688
aI98
aa(lp263
I230
aI130
aI203
aI545
aI67
aa(lp264
I230
aI130
aI648
aI647
aI688
aI98
aI203
aI545
aI67
aa(lp265
I130
aI574
aI646
aI81
aI135
aI647
aI688
aI98
aa(lp266
I230
aI161
aI844
aI238
aI320
aI791
aI545
aI50
aI453
aa(lp267
I903
aI844
aI18
aI545
aI25
aa(lp268
I861
aI903
aI844
aI18
aI230
aI893
aI844
aa(lp269
I861
aI903
aI844
aI634
aI281
aI762
aI545
aI25
aa(lp270
I9
aI486
aI538
aI135
aI788
aI297
aI633
aI688
aI98
aa(lp271
I230
aI91
aI640
aI389
aI545
aI729
aI647
aI688
aI98
aa(lp272
I230
aI493
aI124
aI389
aI545
aI729
aI788
aI688
aI98
aa(lp273
I230
aI313
aI389
aI545
aI729
aI647
aI230
aI93
aI791
aI98
aa(lp274
I230
aI55
aI493
aI91
aI640
aI36
aI647
aI688
aI98
aa(lp275
I493
aI130
aI389
aI729
aI647
aI688
aI98
aa(lp276
I230
aI231
aI791
aI230
aI176
aI788
aI230
aI441
aI737
aa(lp277
I230
aI533
aI323
aI74
aI395
aI113
aI611
aI788
aI383
aI31
aa(lp278
I230
aI113
aI176
aI466
aI788
aI230
aI383
aI737
aa(lp279
I230
aI113
aI176
aI611
aI788
aI230
aI383
aI737
aa(lp280
I230
aI383
aI792
aI194
aI176
aI640
aI52
aI810
aI788
aI230
aI383
aI737
aa(lp281
I230
aI493
aI416
aI383
aI461
aI298
aI865
aI230
aI501
aI152
aa(lp282
I230
aI32
aI416
aI383
aI461
aI657
aI688
aI152
aa(lp283
I230
aI461
aI640
aI135
aI647
aI230
aI663
aI842
aI545
aI741
aI635
aI26
aI688
aI763
aI791
aI230
aI152
aa(lp284
I230
aI461
aI298
aI688
aI763
aI791
aI230
aI152
aa(lp285
I230
aI60
aI493
aI416
aI383
aI461
aI640
aI298
aI688
aI763
aI791
aI230
aI152
aa(lp286
I230
aI493
aI416
aI405
aI513
aI169
aI466
aI788
aI230
aI366
aI323
aI414
aI688
aI145
aa(lp287
I230
aI176
aI250
aI849
aI788
aI230
aI366
aa(lp288
I230
aI520
aI176
aI52
aI788
aI230
aI406
aa(lp289
I515
aI696
aI176
aI466
aI810
aI788
aI366
aa(lp290
I688
aI176
aI640
aI52
aI788
aI861
aI206
aI325
aI39
aa(lp291
I230
aI423
aI176
aI52
aI788
aI493
aI376
aa(lp292
I861
aI272
aI176
aI640
aI52
aI788
aI230
aI493
aI108
aa(lp293
I194
aI696
aI176
aI29
aI493
aI734
aa(lp294
I688
aI423
aI176
aI640
aI36
aI847
aI493
aI376
aI22
aI842
aI394
aI791
aI230
aI515
aI520
aI176
aI647
aI688
aI608
aa(lp295
I688
aI272
aI176
aI640
aI847
aI791
aI230
aI493
aI376
aI524
aa(lp296
I142
aI385
aI254
aI647
aI688
aI98
aa(lp297
I142
aI385
aI802
aI647
aI230
aI93
aI791
aI98
aa(lp298
I142
aI383
aI385
aI538
aI802
aI647
aI688
aI98
aa(lp299
I142
aI383
aI385
aI254
aI647
aI392
aI98
aa(lp300
I142
aI383
aI385
aI445
aI647
aI392
aI98
aa(lp301
I230
aI493
aI416
aI383
aI694
aI791
aI230
aI181
aI821
aI647
aI289
aI791
aI688
aI123
aI209
aI417
aa(lp302
I230
aI181
aI821
aI252
aI230
aI522
aI842
aI230
aI417
aa(lp303
I230
aI181
aI821
aI842
aI230
aI55
aI417
aI647
aI688
aI690
aa(lp304
I230
aI181
aI69
aI647
aI289
aI791
aI230
aI273
aI417
aa(lp305
I181
aI572
aI677
aI137
aI669
aI66
aa(lp306
I230
aI55
aI302
aI135
aI143
aI26
aI230
aI193
aa(lp307
I230
aI55
aI383
aI91
aI640
aI135
aI633
aI688
aI98
aa(lp308
I230
aI383
aI91
aI842
aI230
aI822
aI512
aI78
aI633
aI98
aa(lp309
I230
aI383
aI91
aI842
aI822
aI272
aI384
aI135
aI785
aI230
aI708
aa(lp310
I55
aI383
aI91
aI842
aI822
aI272
aI512
aI135
aI788
aI688
aI95
aa(lp311
I230
aI229
aI467
aI230
aI461
aI788
aI688
aI211
aI633
aI55
aI223
aa(lp312
I230
aI229
aI467
aI230
aI60
aI461
aI788
aI230
aI37
aI42
aI211
aa(lp313
I230
aI432
aI647
aI230
aI55
aI493
aI408
aI866
aI230
aI383
aI461
aI788
aI688
aI211
aI257
aI479
aI223
aa(lp314
I230
aI432
aI866
aI230
aI461
aI103
aI688
aI326
aI438
aa(lp315
I467
aI230
aI461
aI788
aI688
aI438
aI791
aI688
aI683
aa(lp316
I230
aI55
aI91
aI640
aI821
aI257
aI688
aI630
aa(lp317
I230
aI55
aI91
aI791
aI146
aI821
aI446
aI688
aI145
aa(lp318
I55
aI91
aI821
aI257
aI688
aI630
aI842
aI729
aI711
aI320
aa(lp319
I55
aI91
aI791
aI146
aI767
aI320
aI791
aI688
aI707
aa(lp320
I688
aI91
aI577
aI601
aI257
aI688
aI630
aa(lp321
I688
aI142
aI260
aI538
aI135
aI788
aI688
aI481
aa(lp322
I142
aI410
aI788
aI455
aI14
aI895
aa(lp323
I142
aI410
aI135
aI633
aI230
aI404
aI788
aI688
aI526
aI293
aa(lp324
I142
aI410
aI135
aI788
aI438
aI791
aI340
aI14
aI789
aa(lp325
I142
aI256
aI410
aI797
aI788
aI455
aI633
aI507
aa(lp326
I230
aI176
aI254
aI842
aI230
aI656
aa(lp327
I230
aI423
aI416
aI383
aI176
aI188
aI865
aI230
aI442
aI656
aa(lp328
I861
aI272
aI513
aI176
aI254
aI842
aI299
aI788
aI688
aI199
aI791
aI230
aI160
aa(lp329
I194
aI696
aI176
aI316
aI865
aI372
aa(lp330
I688
aI44
aI640
aI430
aI865
aI230
aI176
aI372
aa(lp331
I230
aI229
aI36
aI788
aI230
aI587
aI323
aI865
aI230
aI461
aI788
aI230
aI379
aI36
aI788
aI426
aa(lp332
I230
aI229
aI498
aI230
aI327
aI416
aI493
aI621
aI651
aI258
aI865
aI230
aI531
aI383
aI461
aa(lp333
I230
aI60
aI383
aI461
aI258
aI810
aI688
aI70
aI81
aI230
aI229
aI788
aI230
aI587
aI860
aI688
aI461
aa(lp334
I230
aI60
aI383
aI461
aI788
aI230
aI379
aI640
aI36
aI788
aI688
aI481
aI633
aI230
aI229
aI498
aI327
aI416
aI493
aI621
aa(lp335
I230
aI60
aI383
aI461
aI221
aI849
aI647
aI289
aI791
aI230
aI229
aI36
aI788
aI230
aI587
aI647
aI688
aI70
aa(lp336
I230
aI32
aI416
aI383
aI41
aI176
aI323
aI320
aI791
aI861
aI411
aI209
aa(lp337
I230
aI176
aI640
aI323
aI487
aI257
aI230
aI559
aI152
aa(lp338
I230
aI176
aI36
aI788
aI688
aI481
aI258
aI320
aI257
aI230
aI459
aI152
aI559
aa(lp339
I176
aI323
aI320
aI559
aI152
aa(lp340
I688
aI176
aI192
aI688
aI615
aI487
aa(lp341
I230
aI144
aI749
aI416
aI230
aI461
aI538
aI847
aI230
aI391
aI846
aI891
aa(lp342
I230
aI566
aI791
aI749
aI416
aI230
aI493
aI416
aI383
aI461
aI135
aI647
aI230
aI836
aI157
aa(lp343
I230
aI566
aI791
aI749
aI647
aI861
aI901
aI308
aI469
aI137
aI487
aa(lp344
I749
aI96
aI647
aI861
aI483
aI892
aa(lp345
I661
aI749
aI135
aI847
aI791
aI308
aI842
aI493
aI416
aI383
aI461
aI466
aI810
aa(lp346
I824
aI788
aI812
aa(lp347
I688
aI606
aI824
aI698
aI788
aI688
aI406
aa(lp348
I142
aI824
aI538
aI3
aI788
aI230
aI406
aa(lp349
I142
aI155
aI361
aI32
aI416
aI361
aI383
aI52
aI788
aI230
aI406
aI842
aI230
aI74
aI39
aa(lp350
I142
aI155
aI361
aI547
aI688
aI800
aI383
aI52
aI788
aI230
aI406
aa(lp351
I230
aI176
aI632
aI788
aI230
aI1
aI32
aI734
aa(lp352
I230
aI176
aI36
aI788
aI230
aI734
aI647
aI230
aI172
aI842
aI401
aI86
aa(lp353
I230
aI643
aI176
aI466
aI647
aI688
aI162
aI791
aI554
aI296
aI827
aa(lp354
I493
aI416
aI383
aI176
aI643
aI788
aI230
aI32
aI734
aa(lp355
I60
aI44
aI466
aI788
aI230
aI32
aI734
aa(lp356
I230
aI175
aI648
aI785
aI230
aI270
aI842
aI230
aI607
aI244
aI452
aI791
aI688
aI826
aI553
aa(lp357
I230
aI176
aI640
aI788
aI688
aI514
aI791
aI230
aI270
aI842
aI335
aa(lp358
I230
aI176
aI842
aI230
aI513
aI27
aI336
aI788
aI688
aI19
aa(lp359
I176
aI36
aI788
aI19
aa(lp360
I688
aI176
aI640
aI135
aI788
aI688
aI270
aI514
aI323
aI865
aI688
aI145
aa(lp361
I230
aI60
aI176
aI52
aI788
aI230
aI51
aI509
aI323
aI849
aI865
aI688
aI145
aa(lp362
I230
aI704
aI176
aa(lp363
I176
aI36
aI788
aI230
aI342
aI647
aI688
aI297
aa(lp364
I696
aI176
aI614
aI788
aI230
aI342
aa(lp365
I405
aI416
aI383
aI176
aI466
aI788
aI492
aa(lp366
I230
aI74
aI416
aI442
aI676
aI20
aI633
aI230
aI197
aI321
aa(lp367
I230
aI74
aI676
aI640
aI821
aI785
aI230
aI321
aa(lp368
I230
aI676
aI647
aI289
aI791
aI230
aI321
aa(lp369
I230
aI60
aI676
aI821
aI633
aI230
aI197
aI321
aa(lp370
I502
aI676
aI393
aI647
aI289
aI791
aI327
aI321
aa(lp371
I230
aI757
aI461
aI466
aI788
aI230
aI511
aI143
aI26
aI230
aI215
aa(lp372
I230
aI32
aI416
aI383
aI461
aI851
aI788
aI230
aI55
aI442
aI121
aa(lp373
I230
aI461
aI643
aI788
aI500
aI751
aa(lp374
I230
aI461
aI691
aI658
aI849
aI633
aI31
aa(lp375
I25
aI723
aI466
aI241
aI810
aI647
aI406
aa(lp376
I230
aI383
aI91
aI640
aI329
aI230
aI613
aI100
aa(lp377
I230
aI383
aI91
aI808
aI230
aI451
aI58
aI613
aI100
aa(lp378
I230
aI383
aI91
aI97
aI230
aI451
aI74
aI613
aI100
aa(lp379
I230
aI383
aI49
aI467
aI230
aI60
aI74
aI613
aI100
aa(lp380
I49
aI97
aI230
aI60
aI613
aI100
aa(lp381
I230
aI760
aI91
aI18
aa(lp382
I230
aI676
aI788
aI230
aI324
aa(lp383
I230
aI676
aI648
aI788
aI230
aI60
aI324
aI81
aI389
aI545
aI729
aa(lp384
I230
aI478
aI760
aI91
aa(lp385
I688
aI676
aI640
aI478
aI865
aI230
aI91
aI290
aa(lp386
I230
aI32
aI416
aI383
aI461
aI52
aI788
aI688
aI406
aI81
aI230
aI34
aI258
aI788
aa(lp387
I230
aI461
aI52
aI788
aI355
aI791
aI688
aI39
aI230
aI34
aI640
aI52
aI29
aa(lp388
I230
aI461
aI788
aI230
aI406
aI842
aI230
aI34
aI647
aI641
aa(lp389
I230
aI461
aI36
aI788
aI230
aI8
aI39
aa(lp390
I230
aI194
aI416
aI383
aI461
aI52
aI647
aI406
aI842
aI230
aI8
aI104
aa(lp391
I230
aI229
aI416
aI230
aI106
aI439
aI230
aI551
aI582
aI788
aI688
aI211
aa(lp392
I230
aI229
aI416
aI230
aI34
aI881
aI288
aI467
aI103
aI688
aI211
aa(lp393
I230
aI229
aI416
aI106
aI467
aI103
aI230
aI211
aI842
aI688
aI419
aI647
aI688
aI690
aa(lp394
I230
aI229
aI842
aI230
aI386
aI416
aI230
aI388
aI416
aI230
aI106
aI582
aI103
aI688
aI122
aI240
aa(lp395
I229
aI416
aI106
aI467
aI788
aI211
aa(lp396
I230
aI493
aI416
aI383
aI275
aI791
aI230
aI176
aI52
aI788
aI230
aI778
aa(lp397
I230
aI493
aI416
aI383
aI694
aI791
aI230
aI176
aI466
aI810
aa(lp398
I230
aI493
aI416
aI383
aI694
aI791
aI230
aI176
aI36
aI788
aI230
aI737
aa(lp399
I230
aI520
aI176
aI614
aa(lp400
I493
aI416
aI383
aI883
aI791
aI230
aI176
aI52
aI788
aI230
aI778
aa(lp401
I688
aI59
aI385
aI538
aI711
aI137
aI688
aI101
aa(lp402
I142
aI493
aI416
aI383
aI385
aI546
aI4
aI837
aI64
aa(lp403
I142
aI385
aI647
aI230
aI24
aI745
aI622
aI111
aa(lp404
I142
aI385
aI45
aI807
aI230
aI702
aI820
aI842
aI230
aI280
aI847
aa(lp405
I142
aI385
aI36
aI647
aI230
aI55
aI461
aI766
aa(lp406
I230
aI60
aI461
aI670
aa(lp407
I230
aI60
aI670
aI461
aI358
aI446
aI688
aI145
aa(lp408
I230
aI269
aI226
aI670
aI364
aa(lp409
I60
aI32
aI461
aa(lp410
I535
aI647
aI717
aa(lp411
I142
aI161
aI830
aI538
aI36
aI847
aI230
aI127
aI165
aI561
aa(lp412
I142
aI824
aI538
aI541
aI896
aI847
aI416
aI493
aI416
aI383
aI705
aI318
aa(lp413
I142
aI830
aI786
aI29
aI493
aI416
aI383
aI765
aa(lp414
I142
aI830
aI36
aI647
aI465
aI218
aI31
aa(lp415
I142
aI830
aI36
aI847
aI230
aI176
aI308
aa(lp416
I230
aI32
aI416
aI383
aI461
aI648
aI788
aI230
aI780
aI15
aa(lp417
I230
aI60
aI272
aI416
aI383
aI461
aI842
aI230
aI675
aI416
aI230
aI579
aI489
aI788
aI230
aI321
aI325
aI121
aa(lp418
I32
aI416
aI383
aI461
aI842
aI579
aI788
aI493
aI675
aa(lp419
I461
aI788
aI230
aI321
aI325
aI121
aa(lp420
I383
aI416
aI194
aI461
aI788
aI230
aI591
aI435
aa(lp421
I230
aI91
aI774
aI137
aI230
aI91
aI290
aa(lp422
I230
aI91
aI805
aI788
aI230
aI91
aI290
aa(lp423
I230
aI676
aI238
aI320
aI791
aI230
aI91
aI290
aa(lp424
I91
aI774
aI137
aI230
aI91
aI290
aa(lp425
I91
aI774
aI137
aI230
aI91
aI290
aa(lp426
I230
aI176
aI640
aI323
aI320
aI688
aI270
aa(lp427
I230
aI176
aI323
aI320
aI791
aI230
aI270
aa(lp428
I230
aI383
aI176
aI323
aI320
aI791
aI230
aI270
aa(lp429
I696
aI176
aI323
aI320
aI270
aa(lp430
I515
aI176
aI323
aI320
aI688
aI270
aa(lp431
I230
aI91
aI900
aI230
aI324
aI252
aI688
aI98
aa(lp432
I230
aI91
aI577
aI252
aI98
aI900
aI230
aI324
aI647
aI545
aI38
aa(lp433
I230
aI55
aI91
aI821
aI553
aI688
aI98
aa(lp434
I861
aI164
aI577
aI252
aI98
aI842
aI230
aI160
aa(lp435
I688
aI225
aI640
aI821
aI842
aI230
aI160
aI647
aI500
aI38
aa(lp436
I230
aI383
aI206
aI670
aI257
aI433
aI14
aI10
aa(lp437
I230
aI383
aI461
aI670
aI257
aI688
aI205
aI14
aI647
aI433
aa(lp438
I230
aI383
aI461
aI284
aI257
aI230
aI433
aI14
aI492
aa(lp439
I705
aI383
aI461
aI670
aI257
aI433
aa(lp440
I688
aI461
aI640
aI254
aI842
aI230
aI287
aI788
aI230
aI869
aI292
aa(lp441
I230
aI493
aI416
aI383
aI176
aI52
aI788
aI230
aI176
aI406
aa(lp442
I230
aI493
aI176
aI640
aI788
aI230
aI764
aI406
aa(lp443
I230
aI493
aI176
aI697
aI81
aI52
aI647
aI545
aI428
aI406
aa(lp444
I230
aI176
aI368
aI647
aI230
aI74
aI172
aa(lp445
I493
aI696
aI176
aI52
aI703
aI647
aI416
aI320
aI791
aI688
aI765
aa(lp446
I230
aI327
aI91
aI416
aI9
aI800
aI260
aI36
aI647
aI688
aI433
aa(lp447
I125
aI791
aI260
aI467
aI135
aI647
aI688
aI433
aa(lp448
I724
aI260
aI797
aI788
aI688
aI433
aa(lp449
I661
aI283
aI797
aI647
aI688
aI433
aa(lp450
I60
aI260
aI36
aI788
aI433
aa(lp451
I230
aI317
aI791
aI260
aI821
aI252
aI230
aI93
aI791
aI98
aa(lp452
I260
aI167
aI825
aI252
aI98
aa(lp453
I856
aI167
aI785
aI252
aI688
aI98
aa(lp454
I688
aI260
aI538
aI802
aI647
aI688
aI98
aa(lp455
I142
aI856
aI167
aI306
aI88
aI688
aI642
aI791
aI688
aI98
aa(lp456
I230
aI541
aI849
aI829
aI791
aI861
aI349
aa(lp457
I230
aI541
aI849
aI791
aI861
aI349
aI462
aa(lp458
I861
aI505
aI829
aa(lp459
I505
aI829
aI809
aI785
aI369
aI707
aa(lp460
I397
aI349
aI829
aI842
aI230
aI54
aI707
aI690
aa(lp461
I230
aI91
aI640
aI478
aI788
aI230
aI637
aI517
aI669
aa(lp462
I230
aI74
aI91
aI693
aI255
aI785
aI230
aI831
aa(lp463
I230
aI74
aI91
aI478
aI788
aI230
aI517
aI669
aa(lp464
I230
aI74
aI91
aI470
aI788
aI688
aI517
aI669
aI791
aI230
aI432
aa(lp465
I60
aI225
aI135
aI788
aI519
aI112
aI669
aa(lp466
I230
aI32
aI176
aI498
aI230
aI799
aI675
aI842
aI230
aI74
aI337
aI648
aI788
aI688
aI680
aa(lp467
I230
aI423
aI176
aI842
aI230
aI74
aI295
aI189
aI36
aI788
aI230
aI17
aa(lp468
I230
aI123
aI176
aI648
aI788
aI17
aI633
aI230
aI536
aa(lp469
I230
aI55
aI272
aI520
aI176
aI648
aI147
aI156
aI688
aI536
aI647
aI289
aI791
aI641
aa(lp470
I74
aI395
aI8
aI176
aI498
aI230
aI305
aI189
aI36
aI79
aa(lp471
I230
aI530
aI461
aI258
aI849
aI865
aI279
aa(lp472
I230
aI194
aI730
aI461
aI258
aI849
aI865
aI230
aI432
aI498
aI75
aI719
aa(lp473
I230
aI194
aI461
aI842
aI545
aI453
aI369
aI323
aI849
aI865
aI279
aI647
aI773
aI719
aa(lp474
I247
aI350
aI736
aI461
aI718
aI500
aI763
aI902
aa(lp475
I159
aI461
aI323
aI849
aI865
aI230
aI432
aa(lp476
I230
aI493
aI461
aI640
aI422
aI861
aI682
aa(lp477
I230
aI493
aI461
aI670
aI257
aI105
aI853
aI842
aI507
aI546
aa(lp478
I230
aI461
aI284
aI553
aI230
aI105
aI877
aa(lp479
I461
aI670
aI257
aI105
aI838
aI853
aa(lp480
I688
aI461
aI341
aI688
aI160
aa(lp481
I230
aI176
aI466
aI810
aI897
aI230
aI126
aI267
aI842
aI545
aI453
aI416
aI289
aI237
aa(lp482
I230
aI513
aI176
aI640
aI28
aI788
aI230
aI267
aa(lp483
I696
aI176
aI316
aI267
aI160
aa(lp484
I688
aI176
aI640
aI897
aI230
aI776
aI754
aI267
aa(lp485
I688
aI759
aI176
aI77
aI842
aI688
aI267
aa(lp486
I230
aI493
aI416
aI383
aI176
aI466
aI788
aI230
aI39
aa(lp487
I230
aI493
aI416
aI383
aI176
aI643
aI788
aI545
aI304
aI788
aI230
aI899
aI39
aa(lp488
I230
aI493
aI416
aI383
aI176
aI691
aI788
aI230
aI899
aI39
aa(lp489
I230
aI176
aI691
aI788
aI899
aI338
aa(lp490
I688
aI176
aI575
aI230
aI424
aI121
aI26
aI11
aI788
aa(lp491
I230
aI515
aI176
aI52
aI788
aI230
aI32
aI585
aa(lp492
I230
aI405
aI176
aI52
aI788
aI230
aI436
aI585
aa(lp493
I230
aI405
aI176
aI466
aI788
aI230
aI51
aI585
aa(lp494
I493
aI696
aI176
aI466
aI788
aI32
aI585
aa(lp495
I405
aI176
aI788
aI230
aI436
aI172
aI585
aI323
aI865
aI688
aI145
aa(lp496
I230
aI176
aI640
aI666
aI785
aI279
aa(lp497
I230
aI423
aI513
aI176
aI52
aI810
aI81
aI693
aI300
aa(lp498
I861
aI272
aI513
aI176
aI323
aI865
aI688
aI145
aa(lp499
I861
aI272
aI520
aI176
aI611
aa(lp500
I194
aI696
aI44
aI466
aI647
aI406
aI647
aI230
aI291
aa(lp501
I230
aI423
aI44
aI537
aI788
aI230
aI32
aI519
aI737
aa(lp502
I861
aI272
aI44
aI222
aI788
aI230
aI519
aI435
aa(lp503
I230
aI504
aI272
aI44
aI788
aI230
aI32
aI519
aI435
aa(lp504
I230
aI60
aI272
aI44
aI640
aI250
aI849
aI643
aI788
aI230
aI32
aI519
aI435
aa(lp505
I581
aI371
aI8
aI44
aI250
aI849
aI537
aa(lp506
I230
aI74
aI91
aI135
aI788
aI230
aI458
aa(lp507
I230
aI74
aI484
aI135
aI647
aI230
aI184
aI877
aa(lp508
I230
aI60
aI74
aI91
aI135
aI647
aI853
aa(lp509
I74
aI91
aI135
aI788
aI442
aI853
aa(lp510
I357
aI640
aI230
aI74
aI484
aI647
aI688
aI678
aI791
aI750
aI442
aI853
aa(lp511
I230
aI627
aI676
aI648
aI332
aI230
aI761
aa(lp512
I230
aI312
aI91
aI648
aI788
aI230
aI324
aa(lp513
I74
aI416
aI442
aI91
aI478
aI788
aI230
aI761
aa(lp514
I74
aI416
aI442
aI676
aI36
aI788
aI230
aI324
aa(lp515
I60
aI91
aI842
aI502
aI67
aI478
aI788
aI230
aI324
aa(lp516
I230
aI515
aI416
aI383
aI176
aI648
aI788
aI230
aI585
aa(lp517
I230
aI628
aI513
aI176
aI851
aI647
aI289
aI791
aI444
aa(lp518
I405
aI416
aI383
aI696
aI44
aI466
aI810
aI788
aI230
aI695
aa(lp519
I688
aI339
aI44
aI258
aI788
aI835
aa(lp520
I688
aI352
aI722
aI416
aI383
aI513
aI176
aI640
aI323
aI865
aI688
aI145
aa(lp521
I230
aI55
aI91
aI674
aI647
aI688
aI98
aI81
aI688
aI623
aI119
aI688
aI342
aa(lp522
I230
aI377
aI78
aI788
aI230
aI593
aI404
aI252
aI230
aI193
aI81
aI599
aI623
aI119
aI320
aI791
aI688
aI98
aa(lp523
I688
aI822
aI523
aI91
aI640
aI478
aI788
aI230
aI324
aI842
aI599
aI623
aa(lp524
I599
aI623
aI416
aI861
aI214
aI538
aI135
aI788
aI230
aI342
aI647
aI230
aI193
aa(lp525
I599
aI623
aI673
aI849
aI230
aI342
aI390
aI230
aI91
aI640
aI36
aI788
aa(lp526
I230
aI60
aI194
aI461
aI416
aI230
aI55
aI32
aI461
aI833
aI777
aI800
aa(lp527
I230
aI60
aI383
aI882
aI77
aI842
aI230
aI55
aI32
aI461
aa(lp528
I660
aI461
aI224
aI842
aI371
aI461
aa(lp529
I55
aI32
aI461
aI416
aI60
aI461
aI254
aa(lp530
I688
aI142
aI385
aI538
aI224
aa(lp531
I230
aI176
aI323
aI865
aI688
aI145
aa(lp532
I230
aI231
aI791
aI688
aI289
aI199
aI791
aI861
aI272
aI416
aI383
aI176
aa(lp533
I230
aI423
aI416
aI383
aI176
aI52
aI788
aI230
aI17
aa(lp534
I194
aI416
aI383
aI176
aI466
aI810
aI788
aI540
aa(lp535
I688
aI276
aI176
aI640
aI323
aI626
aI865
aI688
aI145
aa(lp536
I230
aI176
aI52
aI788
aI545
aI304
aI842
aI230
aI534
aI595
aI26
aI545
aI346
aa(lp537
I230
aI176
aI466
aI788
aI545
aI304
aa(lp538
I230
aI541
aI849
aI791
aI230
aI32
aI569
aI176
aa(lp539
I176
aI469
aI137
aI850
aa(lp540
I312
aI176
aI52
aI788
aI680
aa(lp541
I230
aI91
aI647
aI688
aI404
aI640
aI303
aI545
aI67
aa(lp542
I230
aI91
aI640
aI36
aI788
aI232
aI791
aI230
aI404
aa(lp543
I230
aI91
aI36
aI788
aI230
aI324
aI173
aI137
aI850
aa(lp544
I230
aI60
aI91
aI788
aI230
aI600
aI324
aa(lp545
I397
aI275
aI791
aI400
aI788
aI404
aI324
aa(lp546
I230
aI176
aI52
aI788
aI230
aI327
aI511
aI323
aI865
aI688
aI145
aa(lp547
I230
aI427
aI694
aI791
aI230
aI74
aI387
aI420
aI706
aI176
aI788
aI230
aI327
aI735
aa(lp548
I230
aI113
aI176
aI640
aI466
aI788
aI230
aI327
aI39
aI416
aI323
aI365
aI807
aI688
aI145
aI887
aa(lp549
I688
aI113
aI176
aI258
aI532
aI220
aI612
aI137
aI230
aI176
aI878
aa(lp550
I849
aI541
aI694
aI791
aI113
aI176
aI466
aI810
aI788
aI230
aI327
aI39
aa(lp551
I230
aI662
aI190
aI647
aI230
aI883
aI842
aI230
aI176
aI647
aI669
aa(lp552
I629
aI416
aI230
aI34
aI36
aI788
aI230
aI435
aI842
aI230
aI176
aa(lp553
I230
aI229
aI416
aI166
aI259
aI865
aI688
aI145
aI81
aI881
aI230
aI383
aI176
aa(lp554
I12
aI662
aI36
aI788
aI435
aI842
aI230
aI383
aI176
aI647
aI688
aI348
aI71
aa(lp555
I688
aI229
aI416
aI34
aI538
aI881
aI230
aI692
aI721
aI854
aI176
aa(lp556
I230
aI229
aI202
aI230
aI488
aI647
aI230
aI798
aI453
aa(lp557
I230
aI882
aI182
aI230
aI488
aa(lp558
I230
aI60
aI882
aI693
aI136
aI230
aI890
aI604
aa(lp559
I230
aI194
aI882
aI842
aI230
aI669
aI881
aI191
aI647
aI500
aI453
aa(lp560
I279
aI640
aI43
aI191
aI647
aI688
aI383
aI873
aI453
aa(lp561
I230
aI493
aI859
aI176
aa(lp562
I230
aI513
aI176
aI52
aI810
aI788
aI230
aI524
aI791
aI176
aI753
aa(lp563
I696
aI176
aI52
aI788
aI751
aI791
aI176
aI753
aa(lp564
I513
aI176
aI782
aI788
aI355
aI791
aI176
aI281
aI524
aa(lp565
I688
aI176
aI640
aI36
aI788
aI230
aI524
aI791
aI176
aI281
aa(lp566
I230
aI423
aI416
aI383
aI176
aI250
aI849
aI416
aI537
aI788
aI230
aI519
aI15
aa(lp567
I230
aI272
aI416
aI383
aI176
aI537
aI788
aI230
aI519
aI15
aa(lp568
I230
aI272
aI416
aI383
aI176
aI52
aI788
aI230
aI39
aI647
aI230
aI493
aI519
aI15
aa(lp569
I194
aI696
aI176
aI368
aI788
aI248
aI15
aa(lp570
I8
aI416
aI383
aI176
aI537
aI788
aI248
aI15
aI842
aI861
aI206
aI325
aI39
aa(lp571
I493
aI903
aI461
aI842
aI493
aI882
aI466
aI810
aI788
aI688
aI17
aa(lp572
I688
aI660
aI493
aI461
aI416
aI688
aI60
aI493
aI461
aI640
aI52
aI788
aI688
aI680
aa(lp573
I142
aI493
aI385
aI52
aI788
aI230
aI778
aa(lp574
I142
aI493
aI385
aI611
aa(lp575
I142
aI55
aI493
aI385
aI431
aI788
aI688
aI680
aI842
aI230
aI8
aI85
aI206
aa(lp576
I230
aI845
aI744
aI416
aI230
aI8
aI845
aI793
aI788
aI230
aI211
aa(lp577
I230
aI845
aI23
aI744
aI842
aI230
aI118
aI849
aI788
aI230
aI211
aa(lp578
I230
aI8
aI793
aI640
aI476
aI788
aI230
aI211
aI633
aI230
aI60
aI891
aa(lp579
I230
aI8
aI793
aI633
aI230
aI845
aI380
aI788
aI230
aI211
aa(lp580
I319
aI877
aI842
aI230
aI8
aI639
aI476
aI657
aI230
aI60
aI429
aa(lp581
I230
aI405
aI416
aI383
aI520
aI176
aI640
aI643
aI788
aI899
aI818
aa(lp582
I230
aI643
aI176
aI632
aI788
aI688
aI2
aa(lp583
I230
aI643
aI515
aI176
aI250
aI849
aI81
aI466
aI788
aI230
aI899
aI642
aa(lp584
I230
aI513
aI176
aI537
aI416
aI250
aI849
aa(lp585
I515
aI176
aI250
aI849
aI537
aI788
aI197
aI39
aa(lp586
I230
aI44
aI323
aI865
aI688
aI145
aa(lp587
I230
aI44
aI466
aI788
aI230
aI406
aI842
aI327
aI416
aI383
aI557
aI806
aa(lp588
I230
aI60
aI520
aI44
aI52
aI810
aa(lp589
I696
aI44
aI466
aI810
aI788
aI327
aI416
aI383
aI39
aa(lp590
I174
aI640
aI230
aI770
aI883
aI791
aI230
aI44
aI323
aI865
aI688
aI145
aa(lp591
I230
aI327
aI416
aI32
aI91
aI640
aI478
aI788
aI232
aa(lp592
I230
aI327
aI91
aI640
aI478
aI647
aI230
aI404
aa(lp593
I230
aI60
aI327
aI416
aI515
aI91
aI478
aI834
aI688
aI413
aI232
aI791
aI230
aI404
aa(lp594
I230
aI60
aI327
aI416
aI405
aI91
aI478
aI647
aI230
aI404
aa(lp595
I688
aI91
aI640
aI36
aI788
aI688
aI324
aa(lp596
I142
aI824
aI538
aI323
aI865
aI230
aI270
aa(lp597
I142
aI824
aI538
aI36
aI788
aI688
aI751
aI791
aI230
aI435
aI416
aI323
aI320
aI688
aI270
aI647
aI230
aI419
aI694
aa(lp598
I142
aI824
aI201
aI788
aI688
aI751
aI791
aI230
aI435
aI323
aI320
aI688
aI270
aa(lp599
I142
aI824
aI36
aI788
aI230
aI435
aI323
aI320
aI688
aI270
aa(lp600
I142
aI824
aI36
aI896
aI788
aI688
aI737
aI323
aI320
aI688
aI270
aa(lp601
I230
aI493
aI416
aI32
aI176
aI258
aI849
aI842
aI442
aI387
aa(lp602
I230
aI493
aI176
aI640
aI52
aI788
aI230
aI899
aI39
aa(lp603
I230
aI60
aI175
aI52
aI788
aI230
aI68
aI21
aa(lp604
I493
aI44
aI466
aI810
aI788
aI74
aI39
aa(lp605
I688
aI44
aI258
aI835
aI865
aI688
aI145
aa(lp606
I230
aI493
aI91
aI648
aI788
aI688
aI438
aI791
aI230
aI571
aI791
aI739
aI323
aI26
aI688
aI304
aa(lp607
I230
aI852
aI36
aI788
aI688
aI481
aa(lp608
I493
aI91
aI36
aI788
aI230
aI684
aI653
aa(lp609
I493
aI91
aI135
aI788
aI684
aa(lp610
I688
aI493
aI91
aI640
aI36
aI788
aI688
aI481
aa(lp611
I230
aI32
aI176
aI643
aI788
aI230
aI737
aa(lp612
I230
aI176
aI643
aI788
aI688
aI2
aI842
aI230
aI121
aI546
aI641
aa(lp613
I861
aI272
aI520
aI176
aI643
aI788
aI688
aI737
aa(lp614
I272
aI176
aI643
aa(lp615
I8
aI513
aI176
aI611
aI788
aI74
aI737
aa(lp616
I230
aI676
aI454
aI788
aI230
aI468
aI791
aI443
aI487
aa(lp617
I230
aI676
aI478
aI788
aI230
aI290
aa(lp618
I760
aI91
aI416
aI815
aa(lp619
I760
aI91
aI478
aI788
aI460
aI518
aa(lp620
I142
aI676
aI565
aI361
aI74
aI361
aI117
aI842
aI230
aI676
aI88
aa(lp621
I230
aI493
aI416
aI383
aI359
aI791
aI260
aI774
aI865
aI91
aI290
aa(lp622
I493
aI416
aI383
aI694
aI791
aI142
aI260
aI701
aI230
aI60
aI794
aa(lp623
I174
aI640
aI230
aI493
aI416
aI383
aI883
aI791
aI142
aI260
aI821
aI576
aI91
aI815
aa(lp624
I142
aI260
aI821
aI633
aI91
aI815
aa(lp625
I142
aI260
aI821
aI446
aI98
aI290
aa(lp626
I230
aI60
aI515
aI461
aI788
aI230
aI379
aa(lp627
I230
aI60
aI226
aI788
aI379
aa(lp628
I705
aI515
aI461
aI788
aI230
aI379
aa(lp629
I688
aI600
aI461
aI828
aI191
aI788
aI500
aI485
aI582
aa(lp630
I25
aI499
aI788
aI379
aa(lp631
I230
aI25
aI106
aI202
aI230
aI882
aI849
aI647
aI289
aI791
aI230
aI624
aI440
aa(lp632
I230
aI25
aI106
aI640
aI881
aI230
aI383
aI882
aI81
aI135
aI647
aI289
aI791
aI230
aI55
aI624
aI883
aa(lp633
I371
aI106
aI881
aI383
aI882
aI135
aI647
aI289
aI791
aI624
aI440
aa(lp634
I60
aI106
aI416
aI882
aI135
aI647
aI289
aI791
aI230
aI871
aI440
aa(lp635
I688
aI25
aI106
aI202
aI688
aI230
aI882
aI865
aI230
aI700
aI133
aa(lp636
I230
aI515
aI416
aI383
aI176
aI52
aI810
aI323
aI257
aI230
aI383
aI64
aa(lp637
I230
aI515
aI176
aI563
aI257
aI688
aI64
aa(lp638
I230
aI515
aI176
aI842
aI442
aI387
aI648
aI788
aI230
aI19
aI323
aI257
aI688
aI496
aa(lp639
I230
aI513
aI176
aI323
aI87
aI257
aI558
aI496
aa(lp640
I405
aI176
aI36
aI788
aI230
aI19
aI546
aI496
aa(lp641
I230
aI383
aI91
aI821
aI849
aI354
aI230
aI404
aa(lp642
I230
aI383
aI91
aI842
aI729
aI369
aa(lp643
I230
aI383
aI841
aa(lp644
I268
aI389
aI545
aI729
aI81
aI881
aI788
aI26
aI230
aI761
aI647
aI545
aI512
aa(lp645
I688
aI751
aI791
aI230
aI839
aI822
aI523
aI91
aI842
aI545
aI729
aI711
aa(lp646
I230
aI870
aI416
aI461
aI94
aI208
aI230
aI769
aI404
aI842
aI230
aI251
aI450
aI701
aI641
aa(lp647
I230
aI870
aI647
aI899
aI72
aI416
aI230
aI461
aI29
aI688
aI769
aI404
aa(lp648
I230
aI25
aI870
aI647
aI899
aI842
aI493
aI416
aI383
aI461
aI647
aI289
aI791
aI230
aI769
aI404
aa(lp649
I688
aI870
aI640
aI814
aI230
aI461
aI647
aI289
aI791
aI230
aI769
aI404
aa(lp650
I25
aI870
aI633
aI769
aI404
aI36
aI788
aI680
aI842
aI493
aI416
aI383
aI461
aa(lp651
I230
aI493
aI416
aI383
aI176
aI52
aI788
aI688
aI481
aI647
aI688
aI80
aa(lp652
I230
aI493
aI416
aI383
aI176
aI811
aI647
aI688
aI331
aa(lp653
I230
aI383
aI416
aI493
aI176
aI52
aI810
aI560
aa(lp654
I493
aI416
aI383
aI176
aI466
aI29
aI491
aa(lp655
I688
aI493
aI416
aI383
aI176
aI842
aI8
aI387
aI782
aI647
aI688
aI331
aa(lp656
I230
aI32
aI132
aI657
aI688
aI152
aa(lp657
I230
aI32
aI461
aI648
aI647
aI688
aI80
aa(lp658
I861
aI768
aI32
aI461
aI842
aI822
aI885
aI135
aI785
aI230
aI383
aI580
aa(lp659
I230
aI60
aI32
aI461
aI36
aI788
aI230
aI310
aI492
aI680
aa(lp660
I60
aI461
aI36
aI143
aI26
aI383
aI580
aa(lp661
I230
aI493
aI461
aI416
aI142
aI370
aI670
aI257
aI688
aI853
aa(lp662
I230
aI493
aI461
aI640
aI670
aI842
aI142
aI370
aI647
aI230
aI184
aI877
aa(lp663
I230
aI461
aI235
aI142
aI370
aa(lp664
I230
aI370
aI461
aI416
aI142
aI370
aI467
aI647
aI230
aI877
aa(lp665
I493
aI461
aI235
aI370
aI647
aI184
aI877
aa(lp666
I230
aI60
aI493
aI416
aI194
aI461
aI640
aI498
aI230
aI197
aI898
aI81
aI52
aI788
aI688
aI739
aa(lp667
I230
aI60
aI461
aI498
aI230
aI197
aI651
aI221
aI26
aI230
aI66
aa(lp668
I230
aI60
aI226
aI498
aI230
aI197
aI775
aI648
aI788
aI688
aI739
aI416
aI363
aI807
aI688
aI402
aa(lp669
I493
aI416
aI194
aI882
aI874
aI647
aI197
aI567
aI466
aI810
aI788
aI493
aI355
aa(lp670
I461
aI647
aI197
aI129
aI221
aI26
aI230
aI64
aa(lp671
I230
aI231
aI791
aI230
aI60
aI383
aI176
aI611
aI545
aI829
aI788
aI230
aI301
aI633
aI230
aI270
aa(lp672
I230
aI383
aI176
aI632
aI641
aI829
aI788
aI230
aI789
aa(lp673
I230
aI383
aI44
aI537
aI788
aI230
aI270
aI514
aI842
aI500
aI829
aI788
aI230
aI301
aa(lp674
I230
aI383
aI44
aI672
aI230
aI301
aI862
aI230
aI121
aa(lp675
I606
aI275
aI791
aI230
aI383
aI176
aI643
aI842
aI545
aI180
aI611
aI788
aI191
aa(lp676
I260
aI36
aI788
aI699
aa(lp677
I541
aI849
aI791
aI142
aI260
aI478
aI788
aI230
aI62
aI571
aI791
aI401
aa(lp678
I142
aI260
aI538
aI478
aI788
aI230
aI460
aI286
aa(lp679
I142
aI60
aI260
aI738
aI647
aI449
aI102
aa(lp680
I142
aI60
aI260
aI478
aI788
aI230
aI460
aI518
aa(lp681
I230
aI493
aI416
aI383
aI91
aI36
aI788
aI688
aI98
aI323
aI810
aa(lp682
I230
aI493
aI130
aI609
aI788
aI98
aa(lp683
I230
aI720
aI91
aI842
aI230
aI128
aI512
aI640
aI647
aI688
aI98
aa(lp684
I493
aI91
aI868
aI788
aI98
aa(lp685
I541
aI849
aI791
aI230
aI493
aI91
aI842
aI230
aI383
aI512
aI868
aI788
aI688
aI98
aa(lp686
I230
aI461
aI647
aI688
aI568
aI46
aI98
aI137
aI230
aI654
aa(lp687
I230
aI198
aI32
aI416
aI383
aI421
aI461
aI238
aI137
aI230
aI654
aI788
aI688
aI680
aI791
aI688
aI600
aI568
aa(lp688
I230
aI55
aI32
aI416
aI383
aI461
aI521
aI230
aI654
aI647
aI230
aI568
aa(lp689
I230
aI55
aI756
aI650
aI564
aI230
aI654
aI647
aI688
aI568
aa(lp690
I688
aI55
aI32
aI416
aI383
aI385
aI817
aI230
aI654
aI788
aI688
aI51
aI680
aa(lp691
I230
aI493
aI461
aI323
aI865
aI688
aI145
aa(lp692
I230
aI493
aI461
aI36
aI788
aI853
aI143
aI26
aI230
aI426
aa(lp693
I230
aI493
aI857
aI466
aI647
aI230
aI848
aI820
aI633
aI230
aI426
aa(lp694
I230
aI461
aI648
aI647
aI750
aI374
aI853
aI143
aI26
aI230
aI301
aI35
aa(lp695
I688
aI493
aI382
aI258
aI835
aI865
aI688
aI418
aa(lp696
I230
aI493
aI461
aI135
aI647
aI230
aI184
aI820
aa(lp697
I230
aI493
aI382
aI258
aI788
aI81
aI135
aI647
aI688
aI105
aI813
aa(lp698
I230
aI497
aI352
aI726
aI461
aI78
aI647
aI230
aI187
aI877
aa(lp699
I230
aI726
aI461
aI78
aI647
aI230
aI184
aI48
aI820
aa(lp700
I726
aI493
aI461
aI135
aI647
aI184
aI877
aa(lp701
I230
aI32
aI461
aI250
aI849
aI647
aI545
aI406
aa(lp702
I230
aI461
aI52
aI647
aI230
aI764
aI898
aa(lp703
I230
aI194
aI461
aI466
aI788
aI230
aI742
aI406
aI323
aI849
aI865
aI688
aI145
aa(lp704
I194
aI311
aI466
aI810
aI647
aI383
aI406
aa(lp705
I688
aI32
aI461
aI640
aI52
aI788
aI230
aI62
aI461
aI406
aa(lp706
I230
aI32
aI176
aI648
aI785
aI230
aI270
aa(lp707
I230
aI867
aI176
aI36
aI788
aI230
aI187
aI19
aa(lp708
I230
aI515
aI176
aI640
aI36
aI788
aI688
aI270
aI895
aI323
aI865
aI688
aI145
aa(lp709
I230
aI515
aI176
aI842
aI442
aI387
aI648
aI788
aI230
aI19
aa(lp710
I176
aI36
aI788
aI19
aa(lp711
I230
aI461
aI640
aI466
aI865
aI688
aI763
aI791
aI230
aI217
aI143
aI26
aI307
aI135
aI461
aa(lp712
I142
aI493
aI416
aI383
aI385
aI865
aI688
aI763
aI791
aI399
aa(lp713
I142
aI493
aI416
aI383
aI385
aI323
aI463
aI865
aI688
aI145
aI81
aI36
aI239
aI135
aI865
aI688
aI763
aI791
aI740
aa(lp714
I142
aI385
aI783
aI688
aI14
aI543
aI555
aI26
aI886
aI677
aa(lp715
I142
aI385
aI323
aI849
aI230
aI529
aI791
aI399
aa(lp716
I230
aI787
aI477
aI791
aI230
aI643
aI176
aa(lp717
I230
aI541
aI849
aI791
aI230
aI176
aI842
aI545
aI387
aI501
aa(lp718
I230
aI405
aI176
aI842
aI545
aI387
aI501
aa(lp719
I230
aI596
aI176
aI842
aI597
aI387
aI501
aa(lp720
I515
aI705
aI176
aI842
aI387
aI501
aa(lp721
I230
aI493
aI416
aI383
aI176
aI640
aI168
aI849
aI788
aI404
aI232
aa(lp722
I230
aI176
aI640
aI647
aI230
aI404
aa(lp723
I230
aI176
aI135
aI788
aI404
aI232
aa(lp724
I230
aI176
aI135
aI788
aI142
aI232
aI168
aI849
aI647
aI230
aI404
aa(lp725
I230
aI176
aI584
aI553
aI142
aI464
aI262
aI647
aI230
aI404
aa(lp726
I230
aI176
aI36
aI788
aI57
aI323
aI849
aI865
aI688
aI145
aa(lp727
I230
aI276
aI176
aI3
aI647
aI688
aI57
aa(lp728
I230
aI722
aI352
aI416
aI383
aI176
aI323
aI865
aI688
aI145
aa(lp729
I230
aI25
aI176
aI842
aI515
aI617
aI506
aI416
aI230
aI383
aI437
aI258
aI807
aI688
aI145
aI137
aI688
aI319
aI481
aa(lp730
I383
aI416
aI515
aI44
aI135
aI647
aI688
aI57
aa(lp731
I230
aI493
aI91
aI842
aI383
aI437
aI611
aI788
aI230
aI404
aI131
aI842
aI230
aI473
aI74
aI707
aI647
aI688
aI690
aa(lp732
I230
aI442
aI416
aI405
aI91
aI640
aI36
aI647
aI230
aI404
aa(lp733
I230
aI442
aI416
aI383
aI322
aI478
aI647
aI230
aI404
aa(lp734
I91
aI842
aI230
aI442
aI829
aI416
aI383
aI437
aI478
aI788
aI230
aI404
aI324
aa(lp735
I442
aI416
aI383
aI91
aI478
aI788
aI404
aI324
aa(lp736
I230
aI183
aI513
aI91
aI788
aI230
aI464
aI131
aa(lp737
I230
aI60
aI91
aI478
aI788
aI861
aI876
aI324
aa(lp738
I230
aI60
aI91
aI36
aI788
aI230
aI324
aI647
aI200
aa(lp739
I230
aI8
aI91
aI478
aI788
aI230
aI324
aa(lp740
I60
aI8
aI416
aI32
aI91
aI36
aI788
aI56
aI324
aa(lp741
I230
aI176
aI851
aI788
aI230
aI383
aI735
aa(lp742
I230
aI383
aI176
aI52
aI788
aI861
aI248
aI15
aa(lp743
I230
aI383
aI176
aI52
aI788
aI230
aI338
aa(lp744
I174
aI640
aI230
aI383
aI176
aI842
aI230
aI493
aI27
aI466
aI788
aI383
aI818
aa(lp745
I383
aI176
aI466
aI788
aI230
aI383
aI338
aI614
aa(lp746
I230
aI91
aI135
aI788
aI355
aI791
aI230
aI51
aI771
aa(lp747
I230
aI91
aI842
aI230
aI74
aI27
aI697
aI545
aI233
aa(lp748
I230
aI91
aI842
aI230
aI396
aI822
aI233
aI640
aI788
aI230
aI771
aI323
aI26
aI688
aI747
aa(lp749
I230
aI55
aI91
aI135
aI788
aI230
aI51
aI509
aI842
aI545
aI829
aI179
aa(lp750
I230
aI594
aI91
aI842
aI861
aI272
aI512
aI470
aI788
aI230
aI51
aI784
aa.