(lp0
(lp1
I217
aI475
aI401
aI368
aI447
aI306
aI833
aI660
aI138
aa(lp2
I217
aI475
aI693
aI447
aI809
aI217
aI368
aI728
aI401
aI30
aI648
aI239
aI833
aI660
aI138
aa(lp3
I217
aI521
aI815
aI759
aI217
aI475
aI315
aa(lp4
I217
aI447
aI552
aI448
aa(lp5
I521
aI815
aI759
aI475
aI401
aI368
aI377
aI552
aI448
aa(lp6
I217
aI137
aI719
aI401
aI217
aI447
aI518
aI813
aI217
aI736
aI25
aI142
aI858
aa(lp7
I217
aI246
aI759
aI719
aI401
aI217
aI475
aI401
aI368
aI447
aI127
aI623
aI217
aI802
aI818
aa(lp8
I217
aI246
aI759
aI719
aI623
aI828
aI452
aI289
aI455
aI130
aI469
aa(lp9
I719
aI91
aI623
aI828
aI467
aI859
aa(lp10
I635
aI719
aI127
aI813
aI759
aI289
aI809
aI475
aI401
aI368
aI447
aI866
aI777
aa(lp11
I217
aI658
aI533
aI809
aI786
aI106
aI401
aI447
aa(lp12
I217
aI658
aI621
aI25
aI786
aI106
aI809
aI660
aI447
aI306
aI756
aa(lp13
I695
aI533
aI25
aI106
aI401
aI447
aa(lp14
I652
aI32
aI533
aI217
aI767
aI25
aI24
aI298
aI623
aI185
aI863
aa(lp15
I32
aI298
aI401
aI447
aI533
aI756
aI217
aI71
aI706
aa(lp16
I217
aI734
aI806
aI732
aI217
aI84
aI348
aa(lp17
I217
aI32
aI623
aI217
aI392
aI220
aI530
aI217
aI475
aI401
aI368
aI447
aa(lp18
I217
aI32
aI530
aI217
aI447
aI623
aI217
aI23
aI787
aa(lp19
I217
aI32
aI530
aI217
aI447
aI623
aI217
aI675
aI326
aa(lp20
I24
aI698
aI126
aI777
aI718
aI217
aI475
aI401
aI368
aI447
aI813
aI217
aI61
aa(lp21
I217
aI164
aI401
aI217
aI447
aI49
aI756
aI217
aI748
aI623
aI660
aI590
aa(lp22
I217
aI57
aI447
aI401
aI217
aI164
aI49
aI756
aI242
aI285
aI548
aI756
aI217
aI368
aI748
aa(lp23
I135
aI370
aI756
aI217
aI748
aI809
aI77
aI70
aI238
aI660
aI252
aa(lp24
I135
aI57
aI475
aI370
aI209
aI623
aI660
aI77
aI756
aI217
aI511
aI368
aI748
aI401
aI343
aI239
aI347
aI833
aI660
aI138
aa(lp25
I135
aI57
aI475
aI370
aI756
aI217
aI678
aI368
aI748
aa(lp26
I828
aI781
aI475
aI32
aI478
aI217
aI254
aI401
aI217
aI215
aI401
aI217
aI447
aI136
aI25
aI786
aI478
aI660
aI631
aI310
aI215
aa(lp27
I217
aI32
aI401
aI447
aI518
aI842
aI623
aI482
aI60
aI401
aI34
aI469
aa(lp28
I475
aI32
aI809
aI303
aI688
aI34
aI136
aI25
aI447
aI809
aI660
aI631
aI688
aa(lp29
I660
aI32
aI401
aI660
aI447
aI518
aI548
aI478
aI385
aI756
aI364
aI357
aa(lp30
I32
aI401
aI786
aI57
aI447
aI842
aI815
aI360
aI34
aI756
aI417
aI832
aa(lp31
I217
aI447
aI616
aI478
aI217
aI495
aI863
aa(lp32
I217
aI315
aI623
aI217
aI15
aI863
aa(lp33
I217
aI315
aI34
aI78
aI478
aI828
aI214
aI863
aa(lp34
I315
aI842
aI623
aI499
aI595
aI863
aa(lp35
I660
aI447
aI616
aI217
aI315
aI401
aI616
aI478
aI217
aI15
aI863
aa(lp36
I217
aI475
aI447
aI616
aI218
aI828
aI434
aa(lp37
I217
aI475
aI447
aI643
aI238
aI102
aI549
aI809
aI487
aI528
aa(lp38
I217
aI447
aI496
aI534
aI217
aI102
aI845
aa(lp39
I447
aI643
aI238
aI102
aI722
aI549
aa(lp40
I660
aI447
aI323
aI660
aI151
aa(lp41
I217
aI57
aI495
aI447
aI756
aI217
aI365
aa(lp42
I217
aI57
aI213
aI756
aI365
aa(lp43
I678
aI495
aI447
aI756
aI217
aI365
aa(lp44
I660
aI576
aI447
aI795
aI179
aI756
aI480
aI862
aI564
aa(lp45
I24
aI388
aI756
aI365
aa(lp46
I217
aI57
aI182
aI447
aI401
aI217
aI52
aI30
aI447
aI335
aI747
aI847
aa(lp47
I217
aI57
aI368
aI849
aI74
aI809
aI217
aI52
aI30
aI447
aa(lp48
I690
aI447
aI654
aI809
aI355
aI447
aa(lp49
I52
aI30
aI447
aI401
aI57
aI447
aI229
aa(lp50
I660
aI135
aI370
aI518
aI654
aa(lp51
I217
aI475
aI447
aI127
aI623
aI217
aI172
aI787
aa(lp52
I217
aI475
aI318
aI239
aI756
aI78
aI127
aI623
aI660
aI102
aI780
aa(lp53
I217
aI52
aI475
aI346
aI304
aI447
aI75
aI623
aI217
aI485
aI845
aa(lp54
I217
aI346
aI304
aI447
aI75
aI623
aI217
aI172
aI45
aI787
aa(lp55
I346
aI304
aI475
aI447
aI127
aI623
aI172
aI845
aa(lp56
I217
aI30
aI124
aI632
aI660
aI145
aa(lp57
I217
aI30
aI447
aI624
aI623
aI660
aI77
aa(lp58
I828
aI738
aI30
aI447
aI809
aI346
aI507
aI127
aI754
aI217
aI368
aI634
aa(lp59
I217
aI57
aI30
aI447
aI34
aI756
aI217
aI291
aI474
aI841
aa(lp60
I57
aI447
aI34
aI136
aI25
aI368
aI634
aa(lp61
I217
aI521
aI815
aI850
aI759
aI217
aI367
aI472
aa(lp62
I217
aI52
aI30
aI401
aI368
aI447
aa(lp63
I217
aI223
aI472
aI447
aI521
aI815
aI809
aI217
aI668
aI599
aI756
aI480
aI448
aa(lp64
I217
aI223
aI472
aI447
aI34
aI623
aI217
aI172
aI787
aa(lp65
I521
aI815
aI759
aI217
aI223
aI472
aa(lp66
I217
aI510
aI447
aI239
aI815
aI833
aI261
aa(lp67
I217
aI182
aI562
aI447
aI239
aI815
aI833
aI217
aI656
aI478
aI72
aI535
aa(lp68
I217
aI182
aI447
aI809
aI242
aI437
aI351
aI306
aI815
aI833
aI261
aI623
aI743
aI535
aa(lp69
I231
aI331
aI705
aI447
aI691
aI480
aI733
aI867
aa(lp70
I325
aI447
aI306
aI815
aI833
aI217
aI656
aa(lp71
I217
aI475
aI401
aI30
aI447
aI817
aI756
aI660
aI361
aI750
aI759
aI217
aI48
aI233
aa(lp72
I217
aI475
aI368
aI401
aI30
aI447
aI817
aI833
aI660
aI361
aI759
aI720
aI386
aa(lp73
I217
aI447
aI778
aI777
aI833
aI660
aI361
aI759
aI660
aI233
aI710
aa(lp74
I217
aI52
aI447
aI34
aI833
aI660
aI361
aI759
aI720
aI48
aI386
aI809
aI217
aI289
aI528
aa(lp75
I660
aI447
aI756
aI660
aI146
aI833
aI660
aI361
aI759
aI217
aI204
aI616
aI544
aa(lp76
I217
aI216
aI190
aI217
aI639
aI623
aI217
aI765
aI437
aa(lp77
I217
aI849
aI170
aI217
aI639
aa(lp78
I217
aI57
aI849
aI665
aI128
aI217
aI149
aI580
aa(lp79
I217
aI182
aI849
aI809
aI217
aI642
aI848
aI179
aI623
aI480
aI437
aa(lp80
I261
aI616
aI41
aI179
aI623
aI660
aI368
aI447
aI552
aI437
aa(lp81
I217
aI475
aI447
aI401
aI135
aI353
aI643
aI238
aI660
aI549
aa(lp82
I217
aI475
aI447
aI616
aI643
aI809
aI135
aI353
aI623
aI217
aI172
aI845
aa(lp83
I217
aI447
aI537
aI135
aI353
aa(lp84
I217
aI353
aI447
aI401
aI135
aI353
aI453
aI623
aI217
aI845
aa(lp85
I475
aI447
aI537
aI353
aI623
aI172
aI845
aa(lp86
I217
aI30
aI447
aI465
aI815
aI623
aI242
aI393
aa(lp87
I217
aI447
aI49
aI623
aI217
aI734
aI863
aa(lp88
I217
aI182
aI447
aI866
aI756
aI217
aI712
aI393
aI306
aI815
aI833
aI660
aI138
aa(lp89
I182
aI514
aI866
aI777
aI623
aI368
aI393
aa(lp90
I660
aI30
aI447
aI616
aI49
aI756
aI217
aI59
aI447
aI393
aa(lp91
I475
aI868
aI447
aI809
aI475
aI849
aI866
aI777
aI756
aI660
aI17
aa(lp92
I660
aI690
aI475
aI447
aI401
aI660
aI57
aI475
aI447
aI616
aI49
aI756
aI660
aI841
aa(lp93
I135
aI475
aI370
aI49
aI756
aI217
aI748
aa(lp94
I135
aI475
aI370
aI587
aa(lp95
I135
aI52
aI475
aI370
aI415
aI756
aI660
aI841
aI809
aI217
aI8
aI374
aI194
aa(lp96
I217
aI57
aI368
aI447
aI127
aI478
aI720
aI447
aI184
aa(lp97
I217
aI57
aI368
aI447
aI478
aI217
aI700
aI725
aa(lp98
I217
aI57
aI368
aI447
aI478
aI217
aI863
aI239
aI815
aI833
aI660
aI138
aa(lp99
I57
aI213
aI478
aI217
aI442
aI134
aa(lp100
I660
aI57
aI447
aI616
aI478
aI217
aI134
aI401
aI306
aI815
aI833
aI660
aI138
aa(lp101
I217
aI475
aI447
aI623
aI217
aI549
aI845
aa(lp102
I217
aI475
aI447
aI127
aI623
aI217
aI845
aa(lp103
I217
aI495
aI763
aI809
aI217
aI648
aI75
aI623
aI660
aI612
aI549
aa(lp104
I217
aI392
aI447
aI127
aI623
aI217
aI172
aI845
aa(lp105
I692
aI107
aI447
aI127
aI623
aI172
aI845
aa(lp106
I217
aI30
aI401
aI368
aI447
aI49
aI756
aI660
aI393
aI78
aI217
aI32
aI239
aI756
aa(lp107
I217
aI447
aI49
aI756
aI361
aI759
aI660
aI37
aI217
aI32
aI616
aI49
aI28
aa(lp108
I217
aI447
aI756
aI217
aI393
aI809
aI217
aI32
aI623
aI617
aa(lp109
I217
aI447
aI34
aI756
aI217
aI8
aI37
aa(lp110
I217
aI182
aI401
aI368
aI447
aI49
aI623
aI393
aI809
aI217
aI8
aI101
aa(lp111
I660
aI602
aI370
aI518
aI684
aI130
aI660
aI97
aa(lp112
I135
aI475
aI401
aI368
aI370
aI528
aI4
aI803
aI61
aa(lp113
I135
aI370
aI623
aI217
aI23
aI715
aI599
aI108
aa(lp114
I135
aI370
aI159
aI774
aI217
aI675
aI787
aI809
aI217
aI263
aI813
aa(lp115
I135
aI370
aI34
aI623
aI217
aI52
aI447
aI737
aa(lp116
I217
aI30
aI401
aI368
aI447
aI624
aI756
aI217
aI211
aI442
aI14
aa(lp117
I217
aI57
aI255
aI401
aI368
aI447
aI809
aI217
aI648
aI401
aI217
aI561
aI810
aI756
aI217
aI303
aI309
aI116
aa(lp118
I30
aI401
aI368
aI447
aI809
aI561
aI756
aI475
aI648
aa(lp119
I447
aI756
aI217
aI303
aI309
aI116
aa(lp120
I368
aI401
aI182
aI447
aI756
aI217
aI26
aI420
aa(lp121
I217
aI475
aI447
aa(lp122
I217
aI475
aI447
aI616
aI623
aI217
aI193
aa(lp123
I217
aI475
aI447
aI127
aI623
aI673
aI759
aI8
aI385
aa(lp124
I475
aI346
aI304
aI447
aI127
aI623
aI620
aI759
aI33
aa(lp125
I200
aI759
aI217
aI475
aI447
aa(lp126
I217
aI298
aI401
aI447
aI89
aI243
aI217
aI739
aI391
aI809
aI217
aI150
aI433
aI674
aI617
aa(lp127
I217
aI298
aI623
aI864
aI69
aI401
aI217
aI447
aI28
aI660
aI739
aI391
aa(lp128
I217
aI24
aI298
aI623
aI864
aI809
aI475
aI401
aI368
aI447
aI623
aI673
aI759
aI217
aI739
aI391
aa(lp129
I660
aI298
aI616
aI718
aI217
aI447
aI623
aI673
aI759
aI217
aI739
aI391
aa(lp130
I24
aI298
aI608
aI739
aI391
aI34
aI756
aI841
aI809
aI475
aI401
aI368
aI447
aa(lp131
I217
aI447
aI778
aI777
aI809
aI242
aI437
aI351
aa(lp132
I217
aI447
aI203
aI617
aI552
aI796
aI301
aI130
aI28
aI217
aI685
aI759
aI505
aa(lp133
I217
aI447
aI267
aI217
aI48
aI488
aa(lp134
I217
aI447
aI809
aI217
aI368
aI475
aI401
aI30
aI448
aI616
aI28
aI217
aI48
aI488
aa(lp135
I660
aI447
aI616
aI306
aI833
aI660
aI138
aI130
aI28
aI217
aI820
aI759
aI474
aa(lp136
I217
aI57
aI475
aI401
aI182
aI447
aI616
aI478
aI217
aI185
aI863
aI78
aI49
aI756
aI660
aI709
aa(lp137
I217
aI57
aI447
aI478
aI217
aI185
aI628
aI208
aI25
aI217
aI13
aa(lp138
I217
aI57
aI213
aI478
aI217
aI185
aI745
aI624
aI756
aI660
aI709
aI401
aI345
aI774
aI660
aI389
aa(lp139
I475
aI401
aI182
aI849
aI842
aI623
aI185
aI542
aI866
aI777
aI756
aI475
aI361
aa(lp140
I447
aI623
aI185
aI470
aI208
aI25
aI217
aI61
aa(lp141
I217
aI475
aI447
aI306
aI833
aI660
aI138
aa(lp142
I217
aI475
aI447
aI34
aI756
aI549
aI136
aI25
aI217
aI58
aa(lp143
I217
aI475
aI824
aI866
aI623
aI217
aI814
aI787
aI608
aI217
aI58
aa(lp144
I217
aI447
aI624
aI623
aI720
aI358
aI549
aI136
aI25
aI217
aI283
aI33
aa(lp145
I660
aI475
aI318
aI239
aI801
aI833
aI660
aI553
aa(lp146
I217
aI24
aI103
aI190
aI217
aI849
aI815
aI623
aI673
aI759
aI217
aI601
aI798
aa(lp147
I217
aI24
aI103
aI616
aI848
aI217
aI368
aI849
aI78
aI127
aI623
aI673
aI759
aI217
aI52
aI601
aI850
aa(lp148
I355
aI103
aI848
aI368
aI849
aI127
aI623
aI673
aI759
aI601
aI798
aa(lp149
I57
aI103
aI401
aI849
aI127
aI623
aI673
aI759
aI217
aI839
aI798
aa(lp150
I660
aI24
aI103
aI190
aI660
aI217
aI849
aI833
aI217
aI271
aI125
aa(lp151
I217
aI57
aI103
aI49
aI756
aI217
aI706
aI809
aI217
aI447
aa(lp152
I217
aI24
aI103
aI49
aI756
aI217
aI706
aI809
aI217
aI447
aa(lp153
I103
aI49
aI756
aI420
aI809
aI447
aa(lp154
I103
aI866
aI756
aI420
aI809
aI57
aI368
aI447
aa(lp155
I660
aI103
aI616
aI866
aI756
aI217
aI420
aI809
aI217
aI849
aa(lp156
I135
aI370
aI229
aI623
aI660
aI94
aa(lp157
I135
aI370
aI769
aI623
aI217
aI88
aI759
aI94
aa(lp158
I135
aI368
aI370
aI518
aI769
aI623
aI660
aI94
aa(lp159
I135
aI368
aI370
aI229
aI623
aI378
aI94
aa(lp160
I135
aI368
aI370
aI428
aI623
aI378
aI94
aa(lp161
I217
aI245
aI616
aI127
aI756
aI660
aI85
aI306
aI815
aI833
aI660
aI138
aa(lp162
I828
aI683
aI849
aI373
aI73
aI329
aI742
aI217
aI466
aa(lp163
I217
aI57
aI245
aI127
aI623
aI217
aI326
aI306
aI815
aI833
aI660
aI138
aa(lp164
I217
aI57
aI447
aI306
aI815
aI833
aI660
aI138
aI78
aI127
aI756
aI549
aa(lp165
I57
aI368
aI401
aI30
aI245
aI306
aI815
aa(lp166
I217
aI57
aI447
aI643
aa(lp167
I217
aI57
aI643
aI447
aI210
aI429
aI660
aI138
aa(lp168
I217
aI251
aI213
aI643
aI789
aa(lp169
I57
aI30
aI447
aa(lp170
I515
aI623
aI418
aI744
aa(lp171
I217
aI216
aI623
aI419
aI184
aI616
aI852
aI528
aI217
aI473
aI78
aI217
aI368
aI447
aI239
aI756
aa(lp172
I217
aI216
aI616
aI756
aI660
aI85
aI608
aI217
aI368
aI447
aI756
aI217
aI365
aa(lp173
I217
aI57
aI368
aI447
aI756
aI217
aI365
aI401
aI217
aI216
aI623
aI431
aI31
aI756
aI217
aI457
aa(lp174
I113
aI19
aI217
aI849
aa(lp175
I368
aI447
aI127
aI623
aI29
aI623
aI673
aI759
aI216
aI842
aI623
aI132
aI79
aa(lp176
I217
aI567
aI447
aI866
aI756
aI217
aI490
aI136
aI25
aI217
aI202
aa(lp177
I217
aI30
aI401
aI368
aI447
aI817
aI756
aI217
aI52
aI225
aI116
aa(lp178
I217
aI447
aI619
aI756
aI480
aI721
aa(lp179
I217
aI447
aI663
aI633
aI815
aI608
aI687
aa(lp180
I24
aI693
aI866
aI425
aI777
aI623
aI393
aa(lp181
I217
aI475
aI401
aI368
aI447
aI280
aI833
aI217
aI481
aI145
aa(lp182
I217
aI30
aI401
aI368
aI447
aI632
aI660
aI145
aa(lp183
I217
aI447
aI616
aI127
aI623
aI217
aI637
aI809
aI242
aI711
aI610
aI25
aI660
aI733
aI759
aI217
aI145
aa(lp184
I217
aI447
aI280
aI660
aI733
aI759
aI217
aI145
aa(lp185
I217
aI57
aI475
aI401
aI368
aI447
aI616
aI280
aI660
aI733
aI759
aI217
aI145
aa(lp186
I217
aI368
aI194
aI643
aI238
aI671
aI256
aI10
aa(lp187
I217
aI368
aI447
aI643
aI238
aI660
aI193
aI256
aI623
aI671
aa(lp188
I217
aI368
aI447
aI496
aI238
aI217
aI671
aI256
aI474
aa(lp189
I678
aI368
aI447
aI643
aI238
aI671
aa(lp190
I660
aI447
aI616
aI229
aI809
aI217
aI269
aI756
aI217
aI837
aI274
aa(lp191
I217
aI475
aI401
aI368
aI164
aI401
aI447
aI756
aI217
aI492
aI420
aa(lp192
I217
aI475
aI401
aI368
aI164
aI613
aI301
aI809
aI217
aI475
aI401
aI368
aI447
aI756
aI217
aI492
aI706
aa(lp193
I217
aI30
aI447
aI401
aI475
aI164
aI144
aI217
aI182
aI706
aa(lp194
I30
aI447
aI401
aI475
aI164
aI756
aI660
aI420
aa(lp195
I370
aI401
aI791
aI166
aI483
aI99
aa(lp196
I217
aI475
aI164
aI756
aI217
aI116
aI401
aI217
aI392
aI447
aI756
aI217
aI706
aa(lp197
I217
aI164
aI401
aI217
aI447
aI599
aI833
aI747
aI847
aI130
aI534
aI217
aI160
aa(lp198
I217
aI164
aI817
aI756
aI217
aI748
aI401
aI217
aI447
aI817
aI756
aI217
aI420
aa(lp199
I217
aI447
aI619
aI756
aI217
aI706
aI78
aI217
aI475
aI164
aI624
aI756
aI217
aI490
aa(lp200
I217
aI325
aI475
aI447
aI756
aI217
aI420
aI25
aI660
aI661
aI401
aI217
aI475
aI164
aI756
aI217
aI490
aI25
aI660
aI717
aa(lp201
I217
aI447
aI861
aI28
aI217
aI57
aI727
aa(lp202
I217
aI447
aI619
aI28
aI217
aI727
aa(lp203
I30
aI401
aI368
aI619
aI447
aa(lp204
I660
aI508
aI447
aI572
aI28
aI660
aI14
aa(lp205
I660
aI368
aI30
aI401
aI475
aI508
aI447
aI616
aI517
aI28
aI660
aI682
aa(lp206
I217
aI30
aI401
aI368
aI447
aI127
aI756
aI686
aI369
aI306
aI301
aI217
aI252
aa(lp207
I217
aI30
aI401
aI368
aI447
aI127
aI756
aI480
aI686
aI369
aI306
aI301
aI759
aI217
aI252
aa(lp208
I217
aI447
aI306
aI301
aI759
aI217
aI252
aI78
aI127
aI756
aI242
aI686
aI369
aa(lp209
I447
aI306
aI301
aI252
aa(lp210
I24
aI30
aI401
aI368
aI447
aI306
aI301
aI252
aa(lp211
I217
aI30
aI447
aI49
aI756
aI217
aI248
aI841
aI136
aI25
aI217
aI727
aa(lp212
I217
aI182
aI447
aI756
aI660
aI840
aI17
aa(lp213
I217
aI182
aI849
aI756
aI217
aI248
aI841
aa(lp214
I182
aI849
aI866
aI777
aI756
aI368
aI689
aa(lp215
I660
aI729
aI849
aI552
aI581
aI616
aI716
aI815
aI623
aI660
aI847
aI160
aa(lp216
I217
aI447
aI616
aI866
aI833
aI660
aI733
aI759
aI217
aI204
aI136
aI25
aI288
aI127
aI447
aa(lp217
I135
aI475
aI401
aI368
aI370
aI833
aI660
aI733
aI759
aI386
aa(lp218
I135
aI475
aI401
aI368
aI370
aI306
aI449
aI833
aI660
aI138
aI78
aI34
aI129
aI127
aI833
aI660
aI733
aI759
aI710
aa(lp219
I135
aI370
aI752
aI660
aI256
aI386
aI536
aI25
aI854
aI650
aa(lp220
I135
aI370
aI306
aI815
aI217
aI509
aI759
aI386
aa(lp221
I217
aI216
aI34
aI756
aI217
aI682
aI306
aI833
aI217
aI447
aI756
aI217
aI365
aI34
aI756
aI58
aa(lp222
I217
aI216
aI478
aI217
aI310
aI401
aI475
aI597
aI628
aI239
aI833
aI217
aI511
aI368
aI447
aa(lp223
I217
aI57
aI368
aI447
aI239
aI777
aI660
aI67
aI78
aI217
aI216
aI756
aI217
aI682
aI827
aI660
aI447
aa(lp224
I217
aI57
aI368
aI447
aI756
aI217
aI365
aI616
aI34
aI756
aI660
aI85
aI608
aI217
aI216
aI478
aI310
aI401
aI475
aI597
aa(lp225
I217
aI57
aI368
aI447
aI208
aI815
aI623
aI673
aI759
aI217
aI216
aI34
aI756
aI217
aI682
aI623
aI660
aI67
aa(lp226
I217
aI30
aI447
aI866
aI756
aI660
aI549
aa(lp227
I217
aI30
aI447
aI856
aI549
aa(lp228
I217
aI52
aI777
aI587
aI756
aI660
aI443
aa(lp229
I660
aI734
aI447
aI670
aI623
aI660
aI326
aa(lp230
I660
aI793
aI162
aI104
aI316
aI616
aI783
aI756
aI660
aI549
aI629
aI617
aI257
aI742
aI62
aa(lp231
I217
aI216
aI453
aI217
aI447
aI756
aI660
aI198
aI608
aI52
aI340
aa(lp232
I217
aI216
aI453
aI217
aI57
aI447
aI756
aI217
aI35
aI40
aI198
aa(lp233
I217
aI656
aI623
aI217
aI52
aI475
aI395
aI834
aI217
aI368
aI447
aI756
aI660
aI198
aI238
aI464
aI340
aa(lp234
I217
aI656
aI834
aI217
aI447
aI99
aI660
aI94
aI552
aI657
aa(lp235
I453
aI217
aI447
aI756
aI660
aI657
aI759
aI660
aI655
aa(lp236
I828
aI804
aI32
aI697
aI632
aI217
aI57
aI594
aI842
aI830
aI217
aI372
aI394
aI756
aI174
aa(lp237
I828
aI652
aI32
aI640
aI660
aI138
aI809
aI217
aI152
aI842
aI830
aI217
aI394
aI756
aI174
aa(lp238
I828
aI652
aI156
aI136
aI25
aI217
aI594
aI842
aI623
aI217
aI38
aa(lp239
I217
aI32
aI195
aI217
aI594
aI376
aI616
aI623
aI217
aI574
aI38
aa(lp240
I217
aI32
aI697
aI809
aI217
aI197
aI623
aI217
aI38
aa(lp241
I217
aI447
aI623
aI660
aI546
aI43
aI94
aI130
aI217
aI630
aa(lp242
I217
aI186
aI30
aI401
aI368
aI406
aI447
aI222
aI130
aI217
aI630
aI756
aI660
aI841
aI759
aI660
aI576
aI546
aa(lp243
I217
aI52
aI30
aI401
aI368
aI447
aI501
aI217
aI630
aI623
aI217
aI546
aa(lp244
I217
aI52
aI726
aI627
aI543
aI217
aI630
aI623
aI660
aI546
aa(lp245
I660
aI52
aI30
aI401
aI368
aI370
aI784
aI217
aI630
aI756
aI660
aI48
aI841
aa(lp246
I217
aI475
aI447
aI616
aI127
aI608
aI720
aI131
aI809
aI720
aI529
aI623
aI673
aI759
aI617
aa(lp247
I217
aI475
aI447
aI127
aI623
aI217
aI160
aI665
aI444
aa(lp248
I217
aI475
aI447
aI75
aI623
aI660
aI620
aI759
aI217
aI802
aI818
aa(lp249
I217
aI475
aI447
aI75
aI136
aI25
aI423
aI833
aI217
aI802
aI818
aa(lp250
I217
aI447
aI127
aI623
aI828
aI545
aI289
aI136
aI25
aI529
aa(lp251
I217
aI475
aI401
aI392
aI492
aI158
aI866
aI756
aI217
aI294
aI306
aI399
aI660
aI138
aa(lp252
I217
aI164
aI465
aI815
aI756
aI217
aI294
aa(lp253
I217
aI500
aI164
aI49
aI756
aI217
aI393
aa(lp254
I495
aI484
aI164
aI866
aI777
aI756
aI294
aa(lp255
I660
aI164
aI616
aI49
aI756
aI828
aI194
aI309
aI37
aa(lp256
I217
aI163
aI624
aI754
aI217
aI252
aI809
aI217
aI583
aI228
aI436
aI759
aI660
aI793
aI534
aa(lp257
I217
aI164
aI616
aI756
aI660
aI493
aI759
aI217
aI252
aI809
aI8
aI404
aa(lp258
I217
aI164
aI809
aI217
aI492
aI703
aI317
aI756
aI660
aI585
aa(lp259
I164
aI34
aI756
aI585
aa(lp260
I660
aI164
aI616
aI127
aI756
aI660
aI252
aI493
aI306
aI833
aI660
aI138
aa(lp261
I217
aI495
aI164
aI49
aI756
aI217
aI30
aI727
aa(lp262
I217
aI392
aI164
aI49
aI756
aI217
aI421
aI727
aa(lp263
I217
aI392
aI164
aI866
aI756
aI217
aI48
aI727
aa(lp264
I475
aI484
aI164
aI866
aI756
aI30
aI727
aa(lp265
I392
aI164
aI756
aI217
aI421
aI160
aI727
aI306
aI833
aI660
aI138
aa(lp266
I217
aI30
aI164
aI624
aI754
aI217
aI252
aa(lp267
I217
aI835
aI164
aI34
aI756
aI217
aI485
aI585
aa(lp268
I217
aI495
aI164
aI616
aI34
aI756
aI660
aI252
aI696
aI306
aI833
aI660
aI138
aa(lp269
I217
aI495
aI164
aI809
aI225
aI373
aI624
aI756
aI217
aI585
aa(lp270
I164
aI34
aI756
aI585
aa(lp271
I217
aI30
aI164
aI619
aI756
aI217
aI706
aa(lp272
I217
aI164
aI619
aI756
aI660
aI2
aI809
aI217
aI116
aI528
aI617
aa(lp273
I828
aI255
aI500
aI164
aI619
aI756
aI660
aI706
aa(lp274
I255
aI164
aI619
aa(lp275
I8
aI492
aI164
aI587
aI756
aI71
aI706
aa(lp276
I217
aI475
aI826
aI164
aa(lp277
I217
aI492
aI164
aI49
aI777
aI756
aI217
aI504
aI759
aI164
aI723
aa(lp278
I484
aI164
aI49
aI756
aI721
aI759
aI164
aI723
aa(lp279
I492
aI164
aI751
aI756
aI361
aI759
aI164
aI264
aI504
aa(lp280
I660
aI164
aI616
aI34
aI756
aI217
aI504
aI759
aI164
aI264
aa(lp281
I217
aI521
aI815
aI759
aI217
aI495
aI164
aI809
aI217
aI8
aI648
aa(lp282
I217
aI521
aI815
aI759
aI217
aI495
aI164
aI809
aI225
aI373
aa(lp283
I217
aI495
aI164
aI478
aI217
aI8
aI648
aa(lp284
I217
aI495
aI164
aI809
aI225
aI373
aI239
aI833
aI660
aI138
aa(lp285
I217
aI392
aI164
aI809
aI225
aI373
aI306
aI774
aI660
aI138
aa(lp286
I217
aI30
aI401
aI368
aI39
aI164
aI306
aI301
aI759
aI828
aI396
aI196
aa(lp287
I217
aI164
aI616
aI306
aI469
aI238
aI217
aI540
aI145
aa(lp288
I217
aI164
aI34
aI756
aI660
aI85
aI239
aI301
aI238
aI217
aI445
aI145
aI540
aa(lp289
I164
aI306
aI301
aI540
aI145
aa(lp290
I660
aI164
aI180
aI660
aI590
aI469
aa(lp291
I217
aI407
aI164
aI49
aI756
aI475
aI362
aa(lp292
I828
aI255
aI164
aI616
aI49
aI756
aI217
aI475
aI105
aa(lp293
I182
aI484
aI164
aI28
aI475
aI526
aa(lp294
I660
aI407
aI164
aI616
aI34
aI813
aI475
aI362
aI21
aI809
aI380
aI759
aI217
aI495
aI500
aI164
aI623
aI660
aI311
aa(lp295
I660
aI255
aI164
aI616
aI813
aI759
aI217
aI475
aI362
aI504
aa(lp296
I217
aI164
aI616
aI306
aI301
aI660
aI252
aa(lp297
I217
aI164
aI306
aI301
aI759
aI217
aI252
aa(lp298
I217
aI368
aI164
aI306
aI301
aI759
aI217
aI252
aa(lp299
I484
aI164
aI306
aI301
aI252
aa(lp300
I495
aI164
aI306
aI301
aI660
aI252
aa(lp301
I217
aI636
aI178
aI623
aI217
aI850
aI809
aI217
aI164
aI623
aI642
aa(lp302
I604
aI401
aI217
aI32
aI34
aI756
aI217
aI420
aI809
aI217
aI164
aa(lp303
I217
aI216
aI401
aI156
aI241
aI833
aI660
aI138
aI78
aI848
aI217
aI368
aI164
aa(lp304
I12
aI636
aI34
aI756
aI420
aI809
aI217
aI368
aI164
aI623
aI660
aI32
aI552
aI776
aa(lp305
I660
aI216
aI401
aI32
aI518
aI848
aI217
aI664
aI387
aI821
aI164
aa(lp306
I217
aI495
aI401
aI368
aI164
aI49
aI777
aI306
aI238
aI217
aI368
aI61
aa(lp307
I217
aI495
aI164
aI119
aI238
aI660
aI61
aa(lp308
I217
aI495
aI164
aI809
aI225
aI373
aI624
aI756
aI217
aI585
aI306
aI238
aI660
aI477
aa(lp309
I217
aI492
aI164
aI306
aI82
aI238
aI539
aI477
aa(lp310
I392
aI164
aI34
aI756
aI217
aI585
aI528
aI477
aa(lp311
I217
aI521
aI815
aI759
aI217
aI57
aI368
aI164
aI587
aI242
aI796
aI756
aI217
aI283
aI608
aI217
aI252
aa(lp312
I217
aI368
aI164
aI109
aI617
aI796
aI756
aI217
aI757
aa(lp313
I217
aI368
aI42
aI517
aI756
aI217
aI252
aI493
aI809
aI480
aI796
aI756
aI217
aI283
aa(lp314
I217
aI368
aI42
aI645
aI217
aI283
aI830
aI217
aI116
aa(lp315
I582
aI258
aI759
aI217
aI368
aI164
aI619
aI809
aI242
aI168
aI587
aI756
aI179
aa(lp316
I217
aI164
aI229
aI809
aI217
aI584
aa(lp317
I217
aI407
aI401
aI368
aI164
aI176
aI833
aI217
aI225
aI584
aa(lp318
I828
aI255
aI492
aI164
aI229
aI809
aI281
aI756
aI660
aI187
aI759
aI217
aI151
aa(lp319
I182
aI484
aI164
aI297
aI833
aI356
aa(lp320
I660
aI42
aI616
aI413
aI833
aI217
aI164
aI356
aa(lp321
I791
aI756
aI779
aa(lp322
I660
aI582
aI791
aI670
aI756
aI660
aI393
aa(lp323
I135
aI791
aI518
aI3
aI756
aI217
aI393
aa(lp324
I135
aI791
aI343
aI30
aI401
aI343
aI368
aI49
aI756
aI217
aI393
aI809
aI217
aI71
aI37
aa(lp325
I135
aI791
aI343
aI407
aI660
aI847
aI368
aI49
aI756
aI217
aI393
aa(lp326
I217
aI164
aI817
aI756
aI217
aI368
aI704
aa(lp327
I217
aI368
aI164
aI49
aI756
aI828
aI232
aI14
aa(lp328
I217
aI368
aI164
aI49
aI756
aI217
aI319
aa(lp329
I162
aI616
aI217
aI368
aI164
aI809
aI217
aI475
aI703
aI866
aI756
aI368
aI785
aa(lp330
I368
aI164
aI866
aI756
aI217
aI368
aI319
aI589
aa(lp331
I217
aI475
aI401
aI368
aI164
aI127
aI623
aI673
aI759
aI217
aI252
aa(lp332
I217
aI729
aI42
aI624
aI756
aI217
aI252
aI493
aa(lp333
I217
aI42
aI623
aI217
aI252
aa(lp334
I217
aI42
aI623
aI217
aI252
aa(lp335
I135
aI559
aI164
aI34
aI623
aI585
aa(lp336
I135
aI791
aI518
aI306
aI833
aI217
aI252
aa(lp337
I135
aI791
aI518
aI34
aI756
aI660
aI721
aI759
aI217
aI420
aI401
aI306
aI301
aI660
aI252
aI623
aI217
aI519
aI666
aa(lp338
I135
aI791
aI189
aI756
aI660
aI721
aI759
aI217
aI420
aI306
aI301
aI660
aI252
aa(lp339
I135
aI791
aI34
aI756
aI217
aI420
aI306
aI301
aI660
aI252
aa(lp340
I135
aI791
aI34
aI360
aI756
aI660
aI706
aI306
aI301
aI660
aI252
aa(lp341
I217
aI164
aI49
aI756
aI217
aI310
aI490
aI306
aI833
aI660
aI138
aa(lp342
I217
aI410
aI666
aI759
aI217
aI71
aI373
aI520
aI679
aI164
aI756
aI217
aI310
aI704
aa(lp343
I217
aI607
aI164
aI616
aI866
aI756
aI217
aI310
aI37
aI401
aI306
aI347
aI774
aI660
aI138
aI855
aa(lp344
I660
aI607
aI164
aI239
aI512
aI207
aI405
aI130
aI217
aI164
aI846
aa(lp345
I815
aI521
aI666
aI759
aI607
aI164
aI866
aI777
aI756
aI217
aI310
aI37
aa(lp346
I217
aI568
aI447
aI401
aI217
aI475
aI401
aI495
aI447
aI34
aI756
aI432
aI513
aI759
aI217
aI764
aI706
aI809
aI217
aI495
aI164
aI619
aI531
aI260
aa(lp347
I217
aI368
aI447
aI217
aI475
aI447
aI401
aI217
aI495
aI164
aI209
aI756
aI217
aI368
aI420
aI360
aI608
aI217
aI252
aa(lp348
I791
aI401
aI370
aI758
aI99
aI78
aI619
aI756
aI660
aI420
aa(lp349
I135
aI370
aI401
aI217
aI164
aI587
aI756
aI217
aI420
aa(lp350
I135
aI370
aI401
aI343
aI164
aI34
aI756
aI420
aa(lp351
I217
aI164
aI616
aI266
aI754
aI261
aa(lp352
I217
aI407
aI492
aI164
aI49
aI777
aI78
aI665
aI282
aa(lp353
I828
aI255
aI492
aI164
aI306
aI833
aI660
aI138
aa(lp354
I828
aI255
aI500
aI164
aI587
aa(lp355
I182
aI484
aI42
aI866
aI623
aI393
aI623
aI217
aI273
aa(lp356
I135
aI152
aI797
aI518
aI34
aI813
aI217
aI550
aI296
aI598
aI256
aI541
aa(lp357
I135
aI791
aI518
aI521
aI360
aI813
aI401
aI475
aI401
aI368
aI678
aI299
aa(lp358
I135
aI797
aI755
aI28
aI475
aI401
aI368
aI735
aa(lp359
I135
aI797
aI34
aI623
aI550
aI442
aI205
aI687
aa(lp360
I135
aI797
aI34
aI813
aI217
aI164
aI289
aa(lp361
I217
aI164
aI866
aI777
aI451
aI217
aI121
aI249
aI809
aI242
aI437
aI401
aI673
aI221
aa(lp362
I217
aI492
aI164
aI616
aI27
aI756
aI217
aI249
aa(lp363
I484
aI164
aI297
aI249
aI151
aa(lp364
I660
aI164
aI616
aI451
aI217
aI746
aI724
aI249
aa(lp365
I660
aI729
aI164
aI74
aI809
aI660
aI249
aa(lp366
I828
aI804
aI32
aI75
aI623
aI217
aI546
aI809
aI135
aI791
aI833
aI786
aI344
aa(lp367
I217
aI32
aI623
aI660
aI546
aI478
aI786
aI71
aI259
aI75
aI809
aI135
aI791
aI833
aI786
aI344
aa(lp368
I652
aI32
aI623
aI546
aI809
aI786
aI135
aI484
aI791
aa(lp369
I660
aI804
aI32
aI857
aI25
aI337
aI786
aI791
aa(lp370
I660
aI781
aI698
aI616
aI127
aI623
aI660
aI546
aI809
aI135
aI791
aI833
aI786
aI344
aa(lp371
I217
aI164
aI306
aI833
aI660
aI138
aa(lp372
I217
aI521
aI815
aI759
aI660
aI673
aI187
aI759
aI828
aI255
aI401
aI368
aI164
aa(lp373
I217
aI407
aI401
aI368
aI164
aI49
aI756
aI217
aI17
aa(lp374
I182
aI401
aI368
aI164
aI866
aI777
aI756
aI689
aa(lp375
I660
aI225
aI381
aI164
aI616
aI306
aI603
aI833
aI660
aI138
aa(lp376
I217
aI521
aI815
aI759
aI217
aI164
aI756
aI217
aI840
aI706
aa(lp377
I217
aI384
aI306
aI71
aI381
aI607
aI587
aI756
aI368
aI687
aa(lp378
I217
aI607
aI164
aI866
aI756
aI217
aI368
aI706
aa(lp379
I217
aI607
aI164
aI587
aI756
aI217
aI368
aI706
aa(lp380
I217
aI368
aI182
aI164
aI616
aI49
aI777
aI756
aI217
aI368
aI706
aa(lp381
I217
aI475
aI401
aI30
aI164
aI239
aI815
aI809
aI225
aI373
aa(lp382
I217
aI475
aI164
aI616
aI49
aI756
aI217
aI864
aI37
aa(lp383
I217
aI57
aI163
aI49
aI756
aI217
aI65
aI794
aa(lp384
I475
aI42
aI866
aI777
aI756
aI71
aI37
aa(lp385
I660
aI42
aI239
aI801
aI833
aI660
aI138
aa(lp386
I217
aI30
aI401
aI255
aI164
aI68
aI130
aI217
aI630
aa(lp387
I30
aI164
aI68
aI623
aI673
aI759
aI217
aI133
aI226
aa(lp388
I164
aI127
aI136
aI25
aI226
aI570
aI264
aa(lp389
I660
aI328
aI759
aI217
aI390
aI255
aI401
aI475
aI164
aI43
aI94
aa(lp390
I660
aI390
aI164
aI616
aI43
aI94
aa(lp391
I217
aI392
aI401
aI368
aI500
aI164
aI616
aI619
aI756
aI864
aI785
aa(lp392
I217
aI619
aI164
aI109
aI756
aI660
aI2
aa(lp393
I217
aI619
aI495
aI164
aI465
aI815
aI78
aI866
aI756
aI217
aI864
aI618
aa(lp394
I217
aI492
aI164
aI517
aI401
aI465
aI815
aa(lp395
I495
aI164
aI465
aI815
aI517
aI756
aI185
aI37
aa(lp396
I217
aI475
aI447
aI49
aI756
aI660
aI233
aa(lp397
I217
aI164
aI624
aI756
aI217
aI13
aI306
aI777
aI833
aI217
aI475
aI447
aI756
aI217
aI365
aa(lp398
I217
aI164
aI624
aI756
aI361
aI759
aI217
aI48
aI13
aI830
aI217
aI52
aI475
aI447
aI239
aI815
aI833
aI617
aa(lp399
I217
aI447
aI756
aI660
aI841
aI759
aI217
aI230
aI239
aI833
aI217
aI164
aI756
aI660
aI61
aa(lp400
I475
aI447
aI809
aI310
aI365
aI756
aI342
aI815
aI833
aI660
aI164
aI756
aI660
aI61
aa(lp401
I217
aI57
aI164
aI49
aI756
aI217
aI48
aI488
aI306
aI815
aI833
aI660
aI138
aa(lp402
I217
aI120
aI164
aa(lp403
I164
aI34
aI756
aI217
aI324
aI623
aI660
aI279
aa(lp404
I484
aI164
aI589
aI756
aI217
aI324
aa(lp405
I392
aI401
aI368
aI164
aI866
aI756
aI474
aa(lp406
I217
aI495
aI401
aI368
aI164
aI624
aI756
aI217
aI727
aa(lp407
I217
aI308
aI381
aI492
aI164
aI817
aI623
aI673
aI759
aI427
aa(lp408
I392
aI401
aI368
aI484
aI42
aI866
aI777
aI756
aI217
aI667
aa(lp409
I660
aI320
aI42
aI239
aI756
aI801
aa(lp410
I660
aI475
aI392
aI401
aI368
aI492
aI164
aI616
aI306
aI833
aI660
aI138
aa(lp411
I217
aI475
aI401
aI368
aI164
aI49
aI756
aI660
aI85
aI623
aI660
aI77
aa(lp412
I217
aI475
aI401
aI368
aI164
aI778
aI623
aI660
aI313
aa(lp413
I217
aI368
aI401
aI475
aI164
aI49
aI777
aI397
aa(lp414
I475
aI401
aI368
aI164
aI866
aI28
aI473
aa(lp415
I660
aI475
aI401
aI368
aI164
aI809
aI8
aI373
aI751
aI623
aI660
aI313
aa(lp416
I217
aI42
aI306
aI833
aI660
aI138
aa(lp417
I217
aI42
aI866
aI756
aI217
aI393
aI809
aI310
aI401
aI368
aI538
aI439
aa(lp418
I217
aI57
aI500
aI42
aI49
aI777
aa(lp419
I484
aI42
aI866
aI777
aI756
aI310
aI401
aI368
aI37
aa(lp420
I162
aI616
aI217
aI740
aI850
aI759
aI217
aI42
aI306
aI833
aI660
aI138
aa(lp421
I217
aI164
aI109
aI756
aI217
aI1
aI30
aI526
aa(lp422
I217
aI164
aI34
aI756
aI217
aI526
aI623
aI217
aI160
aI809
aI479
aI81
aa(lp423
I217
aI619
aI164
aI866
aI623
aI660
aI153
aI759
aI446
aI278
aI359
aa(lp424
I475
aI401
aI368
aI164
aI619
aI756
aI217
aI30
aI526
aa(lp425
I57
aI42
aI866
aI756
aI217
aI30
aI526
aa(lp426
I217
aI164
aI239
aI525
aI78
aI49
aI777
aI623
aI828
aI232
aI14
aa(lp427
I217
aI164
aI853
aI756
aI828
aI232
aI14
aa(lp428
I217
aI407
aI164
aI34
aI756
aI828
aI232
aI14
aa(lp429
I828
aI255
aI164
aI778
aI756
aI217
aI44
aI667
aI14
aI608
aI720
aI327
aI87
aI809
aI295
aI401
aI427
aa(lp430
I660
aI30
aI164
aI616
aI34
aI623
aI217
aI516
aI14
aa(lp431
I217
aI475
aI401
aI368
aI164
aI49
aI756
aI217
aI164
aI393
aa(lp432
I217
aI475
aI164
aI616
aI756
aI217
aI734
aI393
aa(lp433
I217
aI475
aI164
aI557
aI78
aI49
aI623
aI242
aI641
aI438
aI393
aa(lp434
I217
aI164
aI790
aI623
aI217
aI71
aI160
aa(lp435
I475
aI484
aI164
aI49
aI676
aI623
aI401
aI301
aI759
aI660
aI735
aa(lp436
I217
aI227
aI461
aI759
aI217
aI619
aI164
aa(lp437
I217
aI521
aI815
aI759
aI217
aI164
aI809
aI242
aI373
aI481
aa(lp438
I217
aI392
aI164
aI809
aI242
aI373
aI481
aa(lp439
I217
aI865
aI304
aI164
aI809
aI617
aI552
aI373
aI481
aa(lp440
I495
aI678
aI164
aI809
aI373
aI481
aa(lp441
I217
aI475
aI401
aI368
aI164
aI616
aI175
aI815
aI756
aI391
aI383
aa(lp442
I217
aI164
aI616
aI623
aI217
aI391
aa(lp443
I217
aI164
aI127
aI756
aI391
aI383
aa(lp444
I217
aI164
aI127
aI756
aI135
aI383
aI175
aI815
aI623
aI217
aI391
aa(lp445
I217
aI164
aI566
aI534
aI135
aI450
aI244
aI623
aI217
aI391
aa(lp446
I217
aI30
aI164
aI478
aI217
aI766
aI648
aI809
aI217
aI71
aI117
aI624
aI756
aI660
aI841
aa(lp447
I217
aI407
aI164
aI809
aI217
aI71
aI277
aI177
aI34
aI756
aI217
aI17
aa(lp448
I217
aI118
aI164
aI624
aI756
aI17
aI608
aI217
aI516
aa(lp449
I217
aI52
aI255
aI500
aI164
aI624
aI140
aI148
aI660
aI516
aI623
aI673
aI759
aI617
aa(lp450
I71
aI381
aI8
aI164
aI478
aI217
aI286
aI177
aI34
aI76
aa(lp451
I217
aI475
aI401
aI368
aI164
aI866
aI756
aI217
aI37
aa(lp452
I217
aI475
aI401
aI368
aI164
aI619
aI756
aI242
aI285
aI756
aI217
aI864
aI37
aa(lp453
I217
aI475
aI401
aI368
aI164
aI663
aI756
aI217
aI864
aI37
aa(lp454
I217
aI164
aI663
aI756
aI864
aI319
aa(lp455
I660
aI164
aI555
aI217
aI408
aI116
aI25
aI11
aI756
aa(lp456
I217
aI164
aI34
aI756
aI54
aI306
aI815
aI833
aI660
aI138
aa(lp457
I217
aI225
aI381
aI164
aI3
aI623
aI660
aI54
aa(lp458
I217
aI392
aI475
aI401
aI368
aI164
aI306
aI833
aI660
aI138
aa(lp459
I217
aI24
aI164
aI809
aI495
aI593
aI486
aI401
aI217
aI368
aI422
aI239
aI774
aI660
aI138
aI130
aI660
aI300
aI85
aa(lp460
I368
aI401
aI495
aI42
aI127
aI623
aI660
aI54
aa(lp461
I217
aI164
aI111
aI754
aI217
aI634
aI756
aI442
aI785
aa(lp462
I217
aI495
aI164
aI566
aI301
aI756
aI217
aI442
aI225
aI618
aa(lp463
I217
aI495
aI500
aI164
aI817
aI815
aI285
aI777
aI623
aI217
aI225
aI294
aa(lp464
I217
aI392
aI492
aI164
aI809
aI368
aI183
aI401
aI633
aI799
aI217
aI225
aI442
aI684
aa(lp465
I217
aI492
aI164
aI517
aI756
aI217
aI225
aI442
aI265
aa(lp466
I217
aI407
aI42
aI517
aI756
aI217
aI30
aI499
aI706
aa(lp467
I828
aI255
aI42
aI209
aI756
aI217
aI499
aI420
aa(lp468
I217
aI668
aI255
aI42
aI756
aI217
aI30
aI499
aI420
aa(lp469
I217
aI57
aI255
aI42
aI616
aI465
aI815
aI619
aI756
aI217
aI30
aI499
aI420
aa(lp470
I563
aI355
aI8
aI42
aI465
aI815
aI517
aa(lp471
I217
aI516
aI756
aI217
aI667
aa(lp472
I217
aI516
aI809
aI217
aI164
aI540
aI6
aI833
aI828
aI232
aI667
aa(lp473
I217
aI569
aI579
aI809
aI217
aI521
aI815
aI850
aI759
aI217
aI164
aI756
aI660
aI247
aa(lp474
I217
aI850
aI759
aI164
aI616
aI235
aI756
aI217
aI569
aI516
aa(lp475
I591
aI354
aI217
aI164
aI830
aI217
aI540
aI6
aI833
aI660
aI232
aa(lp476
I217
aI407
aI401
aI368
aI164
aI465
aI815
aI401
aI517
aI756
aI217
aI499
aI14
aa(lp477
I217
aI255
aI401
aI368
aI164
aI517
aI756
aI217
aI499
aI14
aa(lp478
I217
aI255
aI401
aI368
aI164
aI49
aI756
aI217
aI37
aI623
aI217
aI475
aI499
aI14
aa(lp479
I182
aI484
aI164
aI790
aI756
aI232
aI14
aa(lp480
I8
aI401
aI368
aI164
aI517
aI756
aI232
aI14
aI809
aI828
aI194
aI309
aI37
aa(lp481
I217
aI475
aI401
aI368
aI258
aI759
aI217
aI164
aI49
aI756
aI217
aI748
aa(lp482
I217
aI475
aI401
aI368
aI666
aI759
aI217
aI164
aI866
aI777
aa(lp483
I217
aI475
aI401
aI368
aI666
aI759
aI217
aI164
aI34
aI756
aI217
aI706
aa(lp484
I217
aI500
aI164
aI589
aa(lp485
I475
aI401
aI368
aI850
aI759
aI217
aI164
aI49
aI756
aI217
aI748
aa(lp486
I217
aI57
aI368
aI164
aI809
aI192
aI373
aI127
aI267
aI217
aI14
aa(lp487
I217
aI368
aI164
aI127
aI756
aI217
aI17
aa(lp488
I217
aI368
aI164
aI75
aI756
aI660
aI841
aa(lp489
I217
aI368
aI127
aI756
aI392
aI17
aa(lp490
I660
aI355
aI368
aI164
aI239
aI732
aI261
aI25
aI428
aI809
aa(lp491
I217
aI164
aI49
aI756
aI242
aI285
aI809
aI217
aI571
aI573
aI25
aI242
aI328
aa(lp492
I217
aI164
aI866
aI756
aI242
aI285
aa(lp493
I217
aI521
aI815
aI759
aI217
aI30
aI547
aI164
aa(lp494
I164
aI455
aI130
aI816
aa(lp495
I292
aI164
aI49
aI756
aI841
aa(lp496
I217
aI164
aI49
aI756
aI217
aI618
aI425
aI777
aI239
aI833
aI660
aI138
aa(lp497
I217
aI164
aI756
aI242
aI721
aI306
aI833
aI660
aI138
aa(lp498
I217
aI476
aI368
aI492
aI164
aI809
aI480
aI796
aI63
aI650
aI660
aI727
aa(lp499
I217
aI368
aI401
aI495
aI492
aI164
aI809
aI225
aI373
aI866
aI756
aI617
aI552
aI285
aa(lp500
I368
aI401
aI495
aI42
aI866
aI756
aI242
aI285
aa(lp501
I217
aI52
aI86
aI647
aI623
aI660
aI94
aI78
aI660
aI600
aI115
aI660
aI324
aa(lp502
I217
aI363
aI75
aI756
aI217
aI334
aI391
aI234
aI217
aI181
aI78
aI575
aI600
aI115
aI301
aI759
aI660
aI94
aa(lp503
I660
aI346
aI503
aI86
aI616
aI463
aI756
aI217
aI805
aI809
aI575
aI600
aa(lp504
I575
aI600
aI401
aI828
aI201
aI518
aI127
aI756
aI217
aI324
aI623
aI217
aI181
aa(lp505
I575
aI600
aI646
aI815
aI217
aI324
aI376
aI217
aI86
aI616
aI34
aI756
aa(lp506
I217
aI368
aI86
aI616
aI322
aI217
aI588
aI96
aa(lp507
I217
aI368
aI86
aI173
aI217
aI609
aI55
aI588
aI96
aa(lp508
I217
aI368
aI86
aI92
aI217
aI609
aI71
aI588
aI96
aa(lp509
I217
aI368
aI46
aI453
aI217
aI57
aI71
aI588
aI96
aa(lp510
I46
aI92
aI217
aI57
aI588
aI96
aa(lp511
I217
aI32
aI354
aI217
aI86
aI756
aI786
aI701
aI401
aI288
aI86
aI756
aI786
aI796
aa(lp512
I217
aI32
aI809
aI217
aI86
aI756
aI786
aI796
aI401
aI217
aI86
aI756
aI786
aI701
aa(lp513
I217
aI156
aI34
aI833
aI217
aI421
aI727
aI809
aI135
aI57
aI527
aI34
aI756
aI786
aa(lp514
I217
aI24
aI12
aI32
aI34
aI833
aI217
aI546
aI727
aI809
aI217
aI86
aI756
aI786
aI796
aI401
aI288
aI756
aI786
aI701
aa(lp515
I135
aI527
aI518
aI463
aI756
aI217
aI32
aI34
aI623
aI217
aI546
aa(lp516
I217
aI86
aI616
aI375
aI242
aI699
aI623
aI660
aI94
aa(lp517
I217
aI475
aI749
aI375
aI242
aI699
aI756
aI660
aI94
aa(lp518
I217
aI293
aI375
aI242
aI699
aI623
aI217
aI88
aI759
aI94
aa(lp519
I217
aI52
aI475
aI86
aI616
aI34
aI623
aI660
aI94
aa(lp520
I475
aI122
aI375
aI699
aI623
aI660
aI94
aa(lp521
I217
aI475
aI401
aI368
aI86
aI756
aI217
aI88
aI759
aI94
aI809
aI549
aI623
aI660
aI662
aa(lp522
I217
aI122
aI616
aI769
aI756
aI217
aI681
aa(lp523
I217
aI355
aI86
aI836
aI623
aI660
aI94
aa(lp524
I660
aI169
aI616
aI836
aI756
aI660
aI94
aa(lp525
I660
aI368
aI86
aI93
aI623
aI660
aI94
aI608
aI217
aI172
aI224
aa(lp526
I217
aI86
aI411
aI217
aI805
aI234
aI660
aI94
aa(lp527
I217
aI86
aI669
aI234
aI94
aI411
aI217
aI805
aI623
aI242
aI36
aa(lp528
I217
aI52
aI86
aI788
aI534
aI660
aI94
aa(lp529
I828
aI155
aI669
aI234
aI94
aI809
aI217
aI151
aa(lp530
I660
aI212
aI616
aI788
aI809
aI217
aI151
aI623
aI480
aI36
aa(lp531
I217
aI310
aI401
aI30
aI86
aI616
aI463
aI756
aI383
aa(lp532
I217
aI310
aI86
aI616
aI463
aI623
aI217
aI391
aa(lp533
I217
aI57
aI310
aI401
aI495
aI86
aI463
aI800
aI660
aI398
aI383
aI759
aI217
aI391
aa(lp534
I217
aI57
aI310
aI401
aI392
aI86
aI463
aI623
aI217
aI391
aa(lp535
I660
aI86
aI616
aI34
aI756
aI660
aI805
aa(lp536
I217
aI30
aI401
aI368
aI122
aI623
aI217
aI181
aa(lp537
I217
aI122
aI836
aI623
aI660
aI94
aa(lp538
I217
aI122
aI191
aI242
aI64
aa(lp539
I217
aI122
aI624
aI623
aI660
aI94
aI191
aI242
aI64
aa(lp540
I122
aI554
aI622
aI78
aI127
aI623
aI660
aI94
aa(lp541
I217
aI677
aI759
aI625
aI453
aI777
aI217
aI313
aI768
aa(lp542
I217
aI838
aI759
aI653
aI756
aI217
aI313
aI768
aa(lp543
I217
aI246
aI759
aI653
aI453
aI99
aI217
aI313
aI433
aa(lp544
I165
aI653
aI756
aI217
aI313
aI768
aa(lp545
I338
aI616
aI217
aI313
aI768
aI809
aI430
aI240
aI400
aI626
aa(lp546
I217
aI52
aI199
aI127
aI136
aI25
aI217
aI181
aa(lp547
I217
aI52
aI368
aI86
aI616
aI127
aI608
aI660
aI94
aa(lp548
I217
aI368
aI86
aI809
aI217
aI346
aI491
aI75
aI608
aI94
aa(lp549
I217
aI368
aI86
aI809
aI346
aI255
aI369
aI127
aI754
aI217
aI681
aa(lp550
I52
aI368
aI86
aI809
aI346
aI255
aI491
aI127
aI756
aI660
aI90
aa(lp551
I217
aI521
aI815
aI796
aI759
aI828
aI330
aa(lp552
I217
aI521
aI815
aI759
aI828
aI330
aI448
aa(lp553
I828
aI302
aI552
aI796
aa(lp554
I302
aI552
aI796
aI272
aI754
aI351
aI680
aa(lp555
I462
aI330
aI796
aI809
aI217
aI51
aI680
aI662
aa(lp556
I135
aI312
aI141
aI463
aI756
aI217
aI805
aa(lp557
I135
aI312
aI141
aI463
aI756
aI383
aa(lp558
I135
aI141
aI518
aI463
aI756
aI217
aI805
aa(lp559
I135
aI141
aI463
aI756
aI217
aI805
aa(lp560
I135
aI141
aI34
aI756
aI217
aI346
aI805
aa(lp561
I217
aI521
aI815
aI759
aI217
aI169
aI809
aI97
aI623
aI660
aI662
aa(lp562
I217
aI521
aI815
aI759
aI217
aI368
aI86
aI809
aI847
aI527
aI528
aI617
aa(lp563
I521
aI815
aI759
aI217
aI169
aI401
aI847
aI314
aI623
aI660
aI662
aa(lp564
I489
aI808
aI754
aI732
aI276
aI110
aa(lp565
I660
aI368
aI154
aI518
aI127
aI756
aI660
aI85
aa(lp566
I217
aI475
aI401
aI368
aI666
aI759
aI217
aI169
aI788
aI623
aI673
aI759
aI660
aI118
aI196
aI402
aa(lp567
I217
aI169
aI788
aI234
aI217
aI502
aI809
aI217
aI402
aa(lp568
I217
aI169
aI788
aI809
aI217
aI52
aI402
aI623
aI660
aI662
aa(lp569
I217
aI169
aI66
aI623
aI673
aI759
aI217
aI339
aI402
aa(lp570
I169
aI551
aI650
aI130
aI642
aI13
aa(lp571
I217
aI713
aI759
aI7
aI623
aI217
aI273
aa(lp572
I635
aI482
aI527
aI463
aI756
aI474
aI151
aI813
aI759
aI273
aa(lp573
I660
aI482
aI527
aI483
aI99
aI660
aI5
aa(lp574
I338
aI518
aI135
aI8
aI527
aI401
aI575
aI225
aI527
aI623
aI217
aI273
aa(lp575
I8
aI401
aI225
aI527
aI518
aI623
aI217
aI273
aa(lp576
I217
aI8
aI401
aI475
aI86
aI222
aI130
aI217
aI86
aI494
aa(lp577
I217
aI8
aI86
aI68
aI644
aI756
aI217
aI86
aI494
aa(lp578
I217
aI8
aI86
aI616
aI68
aI644
aI756
aI217
aI523
aI458
aa(lp579
I8
aI86
aI68
aI644
aa(lp580
I8
aI86
aI68
aI720
aI264
aI756
aI217
aI458
aa(lp581
I217
aI86
aI616
aI262
aI833
aI217
aI324
aI623
aI217
aI253
aa(lp582
I217
aI57
aI86
aI127
aI756
aI217
aI324
aI833
aI660
aI206
aI657
aa(lp583
I86
aI34
aI756
aI217
aI324
aI623
aI217
aI681
aa(lp584
I660
aI30
aI94
aI86
aI354
aI217
aI290
aI623
aI480
aI491
aa(lp585
I660
aI346
aI775
aI86
aI456
aI756
aI660
aI324
aI732
aI217
aI336
aI759
aI94
aa(lp586
I217
aI86
aI848
aI756
aI25
aI217
aI112
aI196
aa(lp587
I217
aI482
aI86
aI813
aI217
aI273
aI616
aI63
aI756
aI25
aI660
aI285
aI759
aI660
aI273
aa(lp588
I217
aI482
aI86
aI616
aI147
aI524
aI217
aI4
aI803
aI61
aa(lp589
I217
aI225
aI310
aI401
aI71
aI86
aI63
aI756
aI25
aI217
aI4
aI61
aa(lp590
I217
aI596
aI107
aI86
aI843
aI25
aI217
aI523
aI61
aa(lp591
I217
aI71
aI86
aI127
aI756
aI217
aI443
aa(lp592
I217
aI71
aI468
aI127
aI623
aI217
aI172
aI845
aa(lp593
I217
aI57
aI71
aI86
aI127
aI623
aI549
aa(lp594
I71
aI86
aI127
aI756
aI225
aI549
aa(lp595
I338
aI616
aI217
aI71
aI468
aI623
aI660
aI651
aI759
aI720
aI225
aI549
aa(lp596
I217
aI812
aI714
aI401
aI217
aI8
aI812
aI760
aI756
aI217
aI198
aa(lp597
I217
aI812
aI22
aI714
aI809
aI217
aI114
aI815
aI756
aI217
aI198
aa(lp598
I217
aI8
aI760
aI616
aI460
aI756
aI217
aI198
aI608
aI217
aI57
aI858
aa(lp599
I217
aI8
aI760
aI608
aI217
aI812
aI366
aI756
aI217
aI198
aa(lp600
I300
aI845
aI809
aI217
aI8
aI615
aI460
aI632
aI217
aI57
aI471
aa(lp601
I217
aI435
aI616
aI68
aI403
aI409
aI130
aI217
aI86
aI494
aI63
aI623
aI217
aI391
aa(lp602
I217
aI57
aI86
aI68
aI130
aI660
aI494
aa(lp603
I217
aI57
aI86
aI456
aI756
aI660
aI86
aI494
aI63
aI130
aI660
aI391
aa(lp604
I217
aI57
aI86
aI809
aI8
aI95
aI401
aI475
aI486
aI222
aI130
aI217
aI86
aI494
aa(lp605
I217
aI57
aI30
aI527
aI616
aI68
aI130
aI217
aI86
aI494
aI63
aI130
aI217
aI391
aa(lp606
I217
aI475
aI401
aI368
aI86
aI34
aI756
aI660
aI94
aI306
aI777
aa(lp607
I217
aI475
aI122
aI93
aI756
aI94
aa(lp608
I217
aI692
aI86
aI809
aI217
aI571
aI107
aI491
aI616
aI623
aI660
aI94
aa(lp609
I475
aI86
aI836
aI756
aI94
aa(lp610
I521
aI815
aI759
aI217
aI475
aI86
aI809
aI217
aI368
aI491
aI836
aI756
aI660
aI94
aa(lp611
I828
aI332
aI614
aI127
aI756
aI217
aI753
aI809
aI242
aI352
aI777
aa(lp612
I828
aI614
aI616
aI463
aI556
aI487
aa(lp613
I217
aI850
aI759
aI217
aI312
aI614
aI756
aI217
aI586
aI100
aa(lp614
I614
aI463
aI756
aI217
aI349
aI606
aa(lp615
I660
aI312
aI614
aI616
aI463
aI756
aI217
aI606
aa(lp616
I217
aI52
aI86
aI616
aI788
aI238
aI660
aI605
aa(lp617
I217
aI52
aI86
aI759
aI139
aI788
aI429
aI660
aI138
aa(lp618
I52
aI86
aI788
aI238
aI660
aI605
aI809
aI699
aI684
aI301
aa(lp619
I52
aI86
aI759
aI139
aI157
aI301
aI759
aI660
aI680
aa(lp620
I660
aI86
aI669
aI577
aI238
aI660
aI605
aa(lp621
I217
aI71
aI401
aI225
aI649
aI20
aI608
aI217
aI185
aI303
aa(lp622
I217
aI71
aI649
aI616
aI788
aI754
aI217
aI303
aa(lp623
I217
aI649
aI623
aI673
aI759
aI217
aI303
aa(lp624
I217
aI57
aI649
aI788
aI608
aI217
aI185
aI303
aa(lp625
I482
aI649
aI379
aI623
aI673
aI759
aI310
aI303
aa(lp626
I217
aI171
aI492
aI86
aI756
aI217
aI450
aI123
aa(lp627
I217
aI57
aI86
aI463
aI756
aI828
aI844
aI805
aa(lp628
I217
aI57
aI86
aI34
aI756
aI217
aI805
aI623
aI188
aa(lp629
I217
aI8
aI86
aI463
aI756
aI217
aI805
aa(lp630
I57
aI8
aI401
aI30
aI86
aI34
aI756
aI53
aI805
aa(lp631
I217
aI475
aI401
aI368
aI341
aI759
aI527
aI68
aI833
aI86
aI494
aa(lp632
I475
aI401
aI368
aI666
aI759
aI135
aI527
aI674
aI217
aI57
aI761
aa(lp633
I162
aI616
aI217
aI475
aI401
aI368
aI850
aI759
aI135
aI527
aI788
aI556
aI86
aI782
aa(lp634
I135
aI527
aI788
aI608
aI86
aI782
aa(lp635
I135
aI527
aI788
aI429
aI94
aI494
aa(lp636
I217
aI838
aI759
aI527
aI788
aI234
aI217
aI88
aI759
aI94
aa(lp637
I527
aI829
aI792
aI234
aI94
aa(lp638
I823
aI829
aI754
aI234
aI660
aI94
aa(lp639
I660
aI527
aI518
aI769
aI623
aI660
aI94
aa(lp640
I135
aI823
aI829
aI287
aI83
aI660
aI618
aI759
aI660
aI94
aa(lp641
I217
aI86
aI616
aI463
aI756
aI217
aI656
aI552
aI497
aI642
aa(lp642
I217
aI71
aI86
aI665
aI236
aI754
aI217
aI522
aa(lp643
I217
aI71
aI86
aI463
aI756
aI217
aI497
aI642
aa(lp644
I217
aI71
aI86
aI456
aI756
aI660
aI497
aI642
aI759
aI217
aI656
aa(lp645
I57
aI212
aI127
aI756
aI499
aI707
aI256
aI642
aa(lp646
I217
aI368
aI86
aI788
aI815
aI524
aI217
aI391
aa(lp647
I217
aI368
aI86
aI809
aI699
aI351
aa(lp648
I217
aI368
aI807
aa(lp649
I250
aI375
aI242
aI699
aI78
aI848
aI756
aI25
aI217
aI731
aI623
aI242
aI491
aa(lp650
I660
aI721
aI759
aI217
aI368
aI346
aI503
aI86
aI809
aI242
aI699
aI684
aa(lp651
I217
aI475
aI86
aI809
aI368
aI422
aI587
aI756
aI217
aI391
aI123
aI809
aI217
aI459
aI71
aI680
aI623
aI660
aI662
aa(lp652
I217
aI225
aI401
aI392
aI86
aI616
aI34
aI623
aI217
aI391
aa(lp653
I217
aI225
aI401
aI368
aI305
aI463
aI623
aI217
aI391
aa(lp654
I86
aI809
aI217
aI225
aI796
aI401
aI368
aI422
aI463
aI756
aI217
aI391
aI805
aa(lp655
I225
aI401
aI368
aI86
aI463
aI756
aI391
aI805
aa(lp656
I217
aI642
aI848
aI86
aI409
aI401
aI217
aI57
aI86
aa(lp657
I217
aI656
aI848
aI217
aI57
aI441
aa(lp658
I217
aI656
aI190
aI217
aI86
aI401
aI762
aa(lp659
I217
aI57
aI86
aI616
aI34
aI756
aI217
aI656
aI552
aI642
aI376
aI354
aI86
aI409
aI623
aI617
aa(lp660
I217
aI57
aI475
aI368
aI401
aI30
aI86
aI463
aI756
aI401
aI68
aI301
aI759
aI217
aI216
aI552
aI642
aa(lp661
I217
aI71
aI225
aI649
aI624
aI321
aI217
aI731
aa(lp662
I217
aI292
aI86
aI624
aI756
aI217
aI805
aa(lp663
I71
aI401
aI225
aI86
aI463
aI756
aI217
aI731
aa(lp664
I71
aI401
aI225
aI649
aI34
aI756
aI217
aI805
aa(lp665
I57
aI86
aI809
aI482
aI64
aI463
aI756
aI217
aI805
aa(lp666
I217
aI152
aI811
aI222
aI301
aI759
aI242
aI47
aI437
aa(lp667
I868
aI811
aI18
aI242
aI24
aa(lp668
I828
aI868
aI811
aI18
aI217
aI860
aI811
aa(lp669
I828
aI868
aI811
aI831
aI264
aI732
aI242
aI24
aa(lp670
I9
aI307
aI518
aI127
aI756
aI279
aI608
aI660
aI94
aa(lp671
I217
aI475
aI86
aI624
aI756
aI660
aI657
aI759
aI217
aI820
aI759
aI709
aI306
aI25
aI660
aI285
aa(lp672
I217
aI819
aI34
aI756
aI660
aI85
aa(lp673
I475
aI86
aI34
aI756
aI217
aI417
aI412
aa(lp674
I475
aI86
aI127
aI756
aI417
aa(lp675
I660
aI475
aI86
aI616
aI34
aI756
aI660
aI85
aa(lp676
I217
aI86
aI68
aI130
aI217
aI86
aI494
aa(lp677
I217
aI86
aI772
aI756
aI217
aI86
aI494
aa(lp678
I217
aI649
aI222
aI301
aI759
aI217
aI86
aI494
aa(lp679
I86
aI68
aI130
aI217
aI86
aI494
aa(lp680
I86
aI68
aI130
aI217
aI86
aI494
aa(lp681
I217
aI730
aI86
aI18
aa(lp682
I217
aI649
aI756
aI217
aI805
aa(lp683
I217
aI649
aI624
aI756
aI217
aI57
aI805
aI78
aI375
aI242
aI699
aa(lp684
I217
aI463
aI730
aI86
aa(lp685
I660
aI649
aI616
aI463
aI833
aI217
aI86
aI494
aa(lp686
I217
aI86
aI127
aI756
aI361
aI759
aI217
aI48
aI741
aa(lp687
I217
aI86
aI809
aI217
aI71
aI703
aI557
aI242
aI219
aa(lp688
I217
aI86
aI809
aI217
aI382
aI346
aI219
aI616
aI756
aI217
aI741
aI306
aI25
aI660
aI717
aa(lp689
I217
aI52
aI86
aI127
aI756
aI217
aI48
aI488
aI809
aI242
aI796
aI167
aa(lp690
I217
aI346
aI503
aI86
aI809
aI828
aI255
aI491
aI456
aI756
aI217
aI48
aI753
aa(lp691
I217
aI649
aI611
aI756
aI217
aI454
aI759
aI426
aI469
aa(lp692
I217
aI649
aI463
aI756
aI217
aI494
aa(lp693
I730
aI86
aI401
aI782
aa(lp694
I730
aI86
aI463
aI756
aI112
aI498
aa(lp695
I135
aI649
aI782
aI343
aI71
aI343
aI310
aI809
aI217
aI649
aI83
aa(lp696
I343
aI368
aI86
aI401
aI217
aI475
aI401
aI368
aI86
aI756
aI217
aI172
aI56
aa(lp697
I135
aI825
aI527
aI623
aI217
aI845
aI759
aI722
aI549
aa(lp698
I135
aI527
aI521
aI25
aI747
aI97
aa(lp699
I135
aI527
aI343
aI368
aI78
aI660
aI847
aI143
aI482
aI448
aI747
aI847
aa(lp700
I135
aI346
aI775
aI527
aI448
aI747
aI847
aI623
aI440
aI549
aa(lp701
I527
aI34
aI756
aI672
aa(lp702
I521
aI815
aI759
aI135
aI527
aI463
aI756
aI217
aI59
aI820
aI759
aI479
aa(lp703
I135
aI527
aI518
aI463
aI756
aI217
aI112
aI268
aa(lp704
I135
aI57
aI527
aI708
aI623
aI432
aI98
aa(lp705
I135
aI57
aI527
aI463
aI756
aI217
aI112
aI498
aa(lp706
I135
aI527
aI829
aI754
aI217
aI741
aa(lp707
I135
aI527
aI788
aI136
aI25
aI638
aI523
aI61
aa(lp708
I135
aI225
aI527
aI788
aI83
aI660
aI659
aI592
aa(lp709
I135
aI225
aI527
aI829
aI429
aI217
aI48
aI659
aI565
aa(lp710
I135
aI225
aI385
aI83
aI523
aa(lp711
I217
aI216
aI401
aI217
aI103
aI424
aI217
aI532
aI564
aI756
aI660
aI198
aa(lp712
I217
aI216
aI401
aI217
aI32
aI848
aI270
aI453
aI99
aI660
aI198
aa(lp713
I217
aI216
aI401
aI103
aI453
aI99
aI217
aI198
aI809
aI660
aI519
aI623
aI660
aI662
aa(lp714
I217
aI216
aI809
aI217
aI371
aI401
aI217
aI414
aI401
aI217
aI103
aI564
aI99
aI660
aI655
aI552
aI224
aa(lp715
I216
aI401
aI103
aI453
aI756
aI198
aa(lp716
I217
aI86
aI809
aI459
aI50
aa(lp717
I217
aI521
aI815
aI759
aI217
aI225
aI86
aI809
aI217
aI310
aI448
aI401
aI864
aI703
aI64
aa(lp718
I217
aI225
aI86
aI809
aI217
aI310
aI448
aI34
aa(lp719
I217
aI57
aI225
aI86
aI809
aI217
aI310
aI491
aa(lp720
I578
aI86
aI34
aI756
aI390
aI283
aa(lp721
I217
aI310
aI86
aI401
aI9
aI847
aI527
aI34
aI623
aI660
aI671
aa(lp722
I677
aI759
aI527
aI453
aI127
aI623
aI660
aI671
aa(lp723
I694
aI527
aI808
aI756
aI660
aI671
aa(lp724
I635
aI851
aI808
aI623
aI660
aI671
aa(lp725
I57
aI527
aI34
aI756
aI671
aa(lp726
I217
aI225
aI401
aI255
aI80
aI809
aI242
aI344
aI702
aI756
aI242
aI273
aa(lp727
I217
aI8
aI401
aI255
aI86
aI558
aI756
aI25
aI660
aI285
aI759
aI217
aI273
aa(lp728
I217
aI8
aI46
aI843
aI25
aI660
aI285
aI759
aI242
aI273
aa(lp729
I171
aI255
aI401
aI225
aI86
aI63
aI524
aI217
aI273
aa(lp730
I8
aI401
aI255
aI46
aI63
aI130
aI660
aI285
aI759
aI480
aI273
aa(lp731
I217
aI30
aI122
aI401
aI368
aI122
aI808
aI756
aI660
aI549
aa(lp732
I217
aI122
aI401
aI293
aI127
aI754
aI217
aI560
aa(lp733
I217
aI237
aI401
aI217
aI350
aI368
aI122
aI756
aI660
aI549
aI608
aI94
aa(lp734
I30
aI401
aI368
aI154
aI453
aI756
aI225
aI549
aa(lp735
I135
aI154
aI518
aI127
aI754
aI660
aI94
aa(lp736
I217
aI30
aI368
aI401
aI475
aI508
aI770
aa(lp737
I217
aI521
aI815
aI333
aI759
aI828
aI770
aa(lp738
I828
aI770
aI624
aI771
aI732
aI660
aI666
aa(lp739
I815
aI521
aI333
aI759
aI828
aI770
aa(lp740
I815
aI521
aI333
aI759
aI416
aI107
aI770
aa(lp741
I217
aI86
aI623
aI660
aI391
aI616
aI284
aI242
aI64
aa(lp742
I217
aI86
aI616
aI34
aI756
aI383
aI759
aI217
aI391
aa(lp743
I217
aI86
aI34
aI756
aI217
aI805
aI161
aI130
aI816
aa(lp744
I217
aI57
aI86
aI756
aI217
aI576
aI805
aa(lp745
I462
aI258
aI759
aI16
aI756
aI391
aI805
aa(lp746
I660
aI135
aI527
aI518
aI127
aI756
aI660
aI85
aa(lp747
I135
aI154
aI756
aI773
aI256
aI696
aa(lp748
I135
aI154
aI127
aI608
aI217
aI391
aI756
aI660
aI506
aI275
aa(lp749
I135
aI154
aI127
aI756
aI657
aI759
aI822
aI256
aI757
aa(lp750
I135
aI237
aI154
aI808
aI756
aI773
aI608
aI487
aa.