(dp0
I0
S'<NUL>'
p1
sI1
S'crumpled'
p2
sI2
S'coach'
p3
sI3
S'seated'
p4
sI4
S'chain'
p5
sI5
S'birdcage'
p6
sI6
S'saver'
p7
sI7
S'parakeets'
p8
sI8
S'yellow'
p9
sI9
S'four'
p10
sI10
S'woods'
p11
sI11
S'sleep'
p12
sI12
S'asian'
p13
sI13
S'railing'
p14
sI14
S'chair'
p15
sI15
S'bomber'
p16
sI16
S'critter'
p17
sI17
S'carpet'
p18
sI18
S'feeding'
p19
sI19
S'hunting'
p20
sI20
S'hovers'
p21
sI21
S'lining'
p22
sI22
S'watch'
p23
sI23
S'fenced'
p24
sI24
S'young'
p25
sI25
S'to'
p26
sI26
S'flowered'
p27
sI27
S'chewing'
p28
sI28
S'under'
p29
sI29
S'gravel'
p30
sI30
S'brown'
p31
sI31
S'fatigues'
p32
sI32
S'woman'
p33
sI33
S'garden'
p34
sI34
S'sitting'
p35
sI35
S'very'
p36
sI36
S'talons'
p37
sI37
S'blanket'
p38
sI38
S'costume'
p39
sI39
S'fat'
p40
sI40
S'wavy'
p41
sI41
S'putting'
p42
sI42
S'kitten'
p43
sI43
S'drinking'
p44
sI44
S'padded'
p45
sI45
S'wooded'
p46
sI46
S'parrot'
p47
sI47
S'mothers'
p48
sI48
S'wooden'
p49
sI49
S'laying'
p50
sI50
S'colors'
p51
sI51
S'cloudy'
p52
sI52
S'large'
p53
sI53
S'frozen'
p54
sI54
S'sand'
p55
sI55
S'teal'
p56
sI56
S'plain'
p57
sI57
S'small'
p58
sI58
S'sidewalk'
p59
sI59
S'round'
p60
sI60
S'clothes'
p61
sI61
S'fence'
p62
sI62
S'tired'
p63
sI63
S'hanging'
p64
sI64
S'feathers'
p65
sI65
S'knitted'
p66
sI66
S'superimposed'
p67
sI67
S'street'
p68
sI68
S'eating'
p69
sI69
S'pajamas'
p70
sI70
S'shining'
p71
sI71
S'blue'
p72
sI72
S'cargo'
p73
sI73
S'what'
p74
sI74
S'plays'
p75
sI75
S'stands'
p76
sI76
S'sweetly'
p77
sI77
S'sun'
p78
sI78
S'while'
p79
sI79
S'uniform'
p80
sI80
S'lovebird'
p81
sI81
S'poles'
p82
sI82
S'lazily'
p83
sI83
S'above'
p84
sI84
S'new'
p85
sI85
S'ground'
p86
sI86
S'bird'
p87
sI87
S'filled'
p88
sI88
S'body'
p89
sI89
S'pose'
p90
sI90
S'shoreline'
p91
sI91
S'gathered'
p92
sI92
S'pushing'
p93
sI93
S'floats'
p94
sI94
S'water'
p95
sI95
S'coloring'
p96
sI96
S'cart'
p97
sI97
S'others'
p98
sI98
S'directions'
p99
sI99
S'along'
p100
sI100
S'stem'
p101
sI101
S'coverlet'
p102
sI102
S'dry'
p103
sI103
S'boy'
p104
sI104
S'great'
p105
sI105
S'beanbag'
p106
sI106
S'daughter'
p107
sI107
S'colored'
p108
sI108
S'ahead'
p109
sI109
S'rests'
p110
sI110
S'morsels'
p111
sI111
S'stretching'
p112
sI112
S'metal'
p113
sI113
S'soldier'
p114
sI114
S'pick'
p115
sI115
S'climb'
p116
sI116
S'pillow'
p117
sI117
S'pendant'
p118
sI118
S'golden'
p119
sI119
S'peering'
p120
sI120
S'stray'
p121
sI121
S'straw'
p122
sI122
S'duck'
p123
sI123
S'limb'
p124
sI124
S'dachshund'
p125
sI125
S'market'
p126
sI126
S'bent'
p127
sI127
S'standing'
p128
sI128
S'fed'
p129
sI129
S'or'
p130
sI130
S'from'
p131
sI131
S'scaffolding'
p132
sI132
S'army'
p133
sI133
S'wicker'
p134
sI134
S'sweater'
p135
sI135
S'two'
p136
sI136
S'next'
p137
sI137
S'few'
p138
sI138
S'camera'
p139
sI139
S'prey'
p140
sI140
S'wondering'
p141
sI141
S'eagles'
p142
sI142
S'type'
p143
sI143
S'more'
p144
sI144
S'sharing'
p145
sI145
S'door'
p146
sI146
S'porch'
p147
sI147
S'grabbing'
p148
sI148
S'about'
p149
sI149
S'chocolate'
p150
sI150
S'train'
p151
sI151
S'stick'
p152
sI152
S'baby'
p153
sI153
S'midst'
p154
sI154
S'ducks'
p155
sI155
S'osprey'
p156
sI156
S'women'
p157
sI157
S'swooping'
p158
sI158
S'cay'
p159
sI159
S'locked'
p160
sI160
S'room'
p161
sI161
S'viewed'
p162
sI162
S'this'
p163
sI163
S'car'
p164
sI164
S'cat'
p165
sI165
S'nine'
p166
sI166
S'can'
p167
sI167
S'backwards'
p168
sI168
S'chin'
p169
sI169
S'seagull'
p170
sI170
S'bites'
p171
sI171
S'beautiful'
p172
sI172
S'grassy'
p173
sI173
S'pushes'
p174
sI174
S'halloween'
p175
sI175
S'high'
p176
sI176
S'swats'
p177
sI177
S'tag'
p178
sI178
S'posing'
p179
sI179
S'something'
p180
sI180
S'admires'
p181
sI181
S'pond'
p182
sI182
S'tan'
p183
sI183
S'paws'
p184
sI184
S'clothing'
p185
sI185
S'pink'
p186
sI186
S'huge'
p187
sI187
S'end'
p188
sI188
S'winter'
p189
sI189
S'sit'
p190
sI190
S'holds'
p191
sI191
S'preening'
p192
sI192
S'glowing'
p193
sI193
S'forest'
p194
sI194
S'animal'
p195
sI195
S'hugs'
p196
sI196
S'gate'
p197
sI197
S'toddler'
p198
sI198
S'beach'
p199
sI199
S'stock'
p200
sI200
S'profile'
p201
sI201
S'egret'
p202
sI202
S'plant'
p203
sI203
S'pokes'
p204
sI204
S'staircase'
p205
sI205
S'kitty'
p206
sI206
S'waters'
p207
sI207
S'after'
p208
sI208
S'tied'
p209
sI209
S'lay'
p210
sI210
S'coming'
p211
sI211
S'floral'
p212
sI212
S'hawk'
p213
sI213
S'terrier'
p214
sI214
S'aviator'
p215
sI215
S'headdress'
p216
sI216
S'man'
p217
sI217
S'a'
p218
sI218
S'chasing'
p219
sI219
S'neck'
p220
sI220
S'coat'
p221
sI221
S'paw'
p222
sI222
S'eats'
p223
sI223
S'st'
p224
sI224
S'shore'
p225
sI225
S'green'
p226
sI226
S'basket'
p227
sI227
S'closeup'
p228
sI228
S'pulled'
p229
sI229
S'playing'
p230
sI230
S'patio'
p231
sI231
S'cute'
p232
sI232
S'office'
p233
sI233
S'deck'
p234
sI234
S'over'
p235
sI235
S'displayed'
p236
sI236
S'held'
p237
sI237
S'mallard'
p238
sI238
S'through'
p239
sI239
S'looks'
p240
sI240
S'roosters'
p241
sI241
S'smiling'
p242
sI242
S'its'
p243
sI243
S'before'
p244
sI244
S'limbs'
p245
sI245
S'chihuahua'
p246
sI246
S'group'
p247
sI247
S'monitor'
p248
sI248
S'carpeted'
p249
sI249
S'broom'
p250
sI250
S'heron'
p251
sI251
S'yorkshire'
p252
sI252
S'window'
p253
sI253
S'marsh'
p254
sI254
S'turban'
p255
sI255
S'orange'
p256
sI256
S'covered'
p257
sI257
S'might'
p258
sI258
S'image'
p259
sI259
S'apron'
p260
sI260
S'them'
p261
sI261
S'someone'
p262
sI262
S'pecking'
p263
sI263
S'doghouse'
p264
sI264
S'food'
p265
sI265
S'material'
p266
sI266
S'petted'
p267
sI267
S'underneath'
p268
sI268
S'band'
p269
sI269
S'snowball'
p270
sI270
S'hands'
p271
sI271
S'flea'
p272
sI272
S'framed'
p273
sI273
S'cage'
p274
sI274
S'day'
p275
sI275
S'bank'
p276
sI276
S'bread'
p277
sI277
S'name'
p278
sI278
S'drop'
p279
sI279
S'rocks'
p280
sI280
S'sniffing'
p281
sI281
S'fuzz'
p282
sI282
S'stroked'
p283
sI283
S'rock'
p284
sI284
S'shaking'
p285
sI285
S'side'
p286
sI286
S'bone'
p287
sI287
S'just'
p288
sI288
S'another'
p289
sI289
S'house'
p290
sI290
S'fish'
p291
sI291
S'hard'
p292
sI292
S'multicolored'
p293
sI293
S'goose'
p294
sI294
S'comforter'
p295
sI295
S'books'
p296
sI296
S'schemed'
p297
sI297
S'scratching'
p298
sI298
S'girl'
p299
sI299
S'enclosure'
p300
sI300
S'sandy'
p301
sI301
S'out'
p302
sI302
S'emu'
p303
sI303
S'flower'
p304
sI304
S'haired'
p305
sI305
S'pigeon'
p306
sI306
S'looking'
p307
sI307
S'penguins'
p308
sI308
S'wide'
p309
sI309
S'print'
p310
sI310
S'red'
p311
sI311
S'foreground'
p312
sI312
S'bald'
p313
sI313
S'dirt'
p314
sI314
S'seagulls'
p315
sI315
S'pug'
p316
sI316
S'dune'
p317
sI317
S'crouches'
p318
sI318
S'lab'
p319
sI319
S'sheet'
p320
sI320
S'alert'
p321
sI321
S'upon'
p322
sI322
S'steering'
p323
sI323
S'retrieves'
p324
sI324
S'log'
p325
sI325
S'shaggy'
p326
sI326
S'yard'
p327
sI327
S'shelves'
p328
sI328
S'backside'
p329
sI329
S'could'
p330
sI330
S'ostrich'
p331
sI331
S'benji'
p332
sI332
S'american'
p333
sI333
S'view'
p334
sI334
S'fallen'
p335
sI335
S'bite'
p336
sI336
S'drink'
p337
sI337
S'feed'
p338
sI338
S'there'
p339
sI339
S'suspension'
p340
sI340
S'waves'
p341
sI341
S'scene'
p342
sI342
S'staring'
p343
sI343
S'one'
p344
sI344
S'feet'
p345
sI345
S'gazes'
p346
sI346
S'long'
p347
sI347
S'directly'
p348
sI348
S'owner'
p349
sI349
S'thick'
p350
sI350
S'tame'
p351
sI351
S'open'
p352
sI352
S'wing'
p353
sI353
S'sheep'
p354
sI354
S'has'
p355
sI355
S'little'
p356
sI356
S'toy'
p357
sI357
S'heads'
p358
sI358
S'monkey'
p359
sI359
S'cloths'
p360
sI360
S'together'
p361
sI361
S'top'
p362
sI362
S'plastic'
p363
sI363
S'stork'
p364
sI364
S'their'
p365
sI365
S'leash'
p366
sI366
S'station'
p367
sI367
S'saint'
p368
sI368
S'white'
p369
sI369
S'legs'
p370
sI370
S'dogs'
p371
sI371
S'beard'
p372
sI372
S'bumble'
p373
sI373
S'eyes'
p374
sI374
S'stuffed'
p375
sI375
S'flapping'
p376
sI376
S'that'
p377
sI377
S'bulldog'
p378
sI378
S'shallow'
p379
sI379
S'hovering'
p380
sI380
S'part'
p381
sI381
S'eyed'
p382
sI382
S'somewhat'
p383
sI383
S'branches'
p384
sI384
S'lazy'
p385
sI385
S'flowers'
p386
sI386
S'stairs'
p387
sI387
S'than'
p388
sI388
S'schnauzer'
p389
sI389
S'distance'
p390
sI390
S'wet'
p391
sI391
S'tree'
p392
sI392
S'grey'
p393
sI393
S'bed'
p394
sI394
S'bee'
p395
sI395
S'coats'
p396
sI396
S'iron'
p397
sI397
S'outdoors'
p398
sI398
S'bare'
p399
sI399
S'toward'
p400
sI400
S'wandering'
p401
sI401
S'and'
p402
sI402
S'bridge'
p403
sI403
S'thistle'
p404
sI404
S'curtains'
p405
sI405
S'awaking'
p406
sI406
S'greyhound'
p407
sI407
S'ginger'
p408
sI408
S'comfortable'
p409
sI409
S'seed'
p410
sI410
S'distorted'
p411
sI411
S'carrying'
p412
sI412
S'slab'
p413
sI413
S'batting'
p414
sI414
S'skullcap'
p415
sI415
S'lie'
p416
sI416
S'calico'
p417
sI417
S'concrete'
p418
sI418
S'mid'
p419
sI419
S'camouflage'
p420
sI420
S'couch'
p421
sI421
S'dining'
p422
sI422
S'chest'
p423
sI423
S'materials'
p424
sI424
S'take'
p425
sI425
S'upside'
p426
sI426
S'glassware'
p427
sI427
S'folders'
p428
sI428
S'play'
p429
sI429
S'towards'
p430
sI430
S'multiple'
p431
sI431
S'combat'
p432
sI432
S'opposite'
p433
sI433
S'track'
p434
sI434
S'object'
p435
sI435
S'goldfinch'
p436
sI436
S'most'
p437
sI437
S'mouth'
p438
sI438
S'printed'
p439
sI439
S'sheets'
p440
sI440
S'tall'
p441
sI441
S'bluebird'
p442
sI442
S'patterned'
p443
sI443
S'lawn'
p444
sI444
S'constructed'
p445
sI445
S'clear'
p446
sI446
S'dirty'
p447
sI447
S'dog'
p448
sI448
S'face'
p449
sI449
S'guiltily'
p450
sI450
S'barren'
p451
sI451
S'attacking'
p452
sI452
S'incomplete'
p453
sI453
S'walking'
p454
sI454
S'selection'
p455
sI455
S'shot'
p456
sI456
S'perches'
p457
sI457
S'hillside'
p458
sI458
S'grate'
p459
sI459
S'bright'
p460
sI460
S'parked'
p461
sI461
S'headshot'
p462
sI462
S'fuzzy'
p463
sI463
S'perched'
p464
sI464
S'rough'
p465
sI465
S'curled'
p466
sI466
S'snack'
p467
sI467
S'unfinished'
p468
sI468
S'jay'
p469
sI469
S'outside'
p470
sI470
S'jackethalter'
p471
sI471
S'outpost'
p472
sI472
S'bernard'
p473
sI473
S'bush'
p474
sI474
S'wood'
p475
sI475
S'black'
p476
sI476
S'pretty'
p477
sI477
S'blinds'
p478
sI478
S'wearing'
p479
sI479
S'steel'
p480
sI480
S'his'
p481
sI481
S'closed'
p482
sI482
S'colorful'
p483
sI483
S'get'
p484
sI484
S'domestic'
p485
sI485
S'sunny'
p486
sI486
S'stripes'
p487
sI487
S'trees'
p488
sI488
S'beam'
p489
sI489
S'gulls'
p490
sI490
S'cushion'
p491
sI491
S'beak'
p492
sI492
S'striped'
p493
sI493
S'sill'
p494
sI494
S'feeder'
p495
sI495
S'gray'
p496
sI496
S'runs'
p497
sI497
S'gloved'
p498
sI498
S'bar'
p499
sI499
S'leather'
p500
sI500
S'tabby'
p501
sI501
S'licking'
p502
sI502
S'bay'
p503
sI503
S'necked'
p504
sI504
S'bag'
p505
sI505
S'stuff'
p506
sI506
S'river'
p507
sI507
S'ears'
p508
sI508
S'spotted'
p509
sI509
S'set'
p510
sI510
S'scruffy'
p511
sI511
S'fluffy'
p512
sI512
S'groggy'
p513
sI513
S'ends'
p514
sI514
S'canine'
p515
sI515
S'yorkie'
p516
sI516
S'computer'
p517
sI517
S'asleep'
p518
sI518
S'are'
p519
sI519
S'sea'
p520
sI520
S'seal'
p521
sI521
S'close'
p522
sI522
S'handler'
p523
sI523
S'wire'
p524
sI524
S'onto'
p525
sI525
S'away'
p526
sI526
S'tarp'
p527
sI527
S'birds'
p528
sI528
S'behind'
p529
sI529
S'plywood'
p530
sI530
S'pets'
p531
sI531
S'between'
p532
sI532
S'serene'
p533
sI533
S'reading'
p534
sI534
S'across'
p535
sI535
S'pants'
p536
sI536
S'knowing'
p537
sI537
S'herding'
p538
sI538
S'checkered'
p539
sI539
S'vertical'
p540
sI540
S'screen'
p541
sI541
S'dome'
p542
sI542
S'outfit'
p543
sI543
S'licks'
p544
sI544
S'yawning'
p545
sI545
S'uncompleted'
p546
sI546
S'kitchen'
p547
sI547
S'faced'
p548
sI548
S'both'
p549
sI549
S'grass'
p550
sI550
S'cow'
p551
sI551
S'taking'
p552
sI552
S's'
p553
sI553
S'photographer'
p554
sI554
S'grooming'
p555
sI555
S'finds'
p556
sI556
S'among'
p557
sI557
S'stretches'
p558
sI558
S'hold'
p559
sI559
S'tone'
p560
sI560
S'stream'
p561
sI561
S'bell'
p562
sI562
S'color'
p563
sI563
S'sweet'
p564
sI564
S'walk'
p565
sI565
S'pole'
p566
sI566
S'stretched'
p567
sI567
S'brindle'
p568
sI568
S'blonde'
p569
sI569
S'desktop'
p570
sI570
S'consuming'
p571
sI571
S'light'
p572
sI572
S'naps'
p573
sI573
S'source'
p574
sI574
S'bumblebee'
p575
sI575
S'three'
p576
sI576
S'tiny'
p577
sI577
S'quickly'
p578
sI578
S'tropical'
p579
sI579
S'pc'
p580
sI580
S'treat'
p581
sI581
S'interest'
p582
sI582
S'peaceful'
p583
sI583
S'curtain'
p584
sI584
S'feather'
p585
sI585
S'windowsill'
p586
sI586
S'roped'
p587
sI587
S'resting'
p588
sI588
S'shopping'
p589
sI589
S'relaxing'
p590
sI590
S'sunshine'
p591
sI591
S'worker'
p592
sI592
S'wires'
p593
sI593
S'tiger'
p594
sI594
S'child'
p595
sI595
S'pilot'
p596
sI596
S'multi'
p597
sI597
S'plaid'
p598
sI598
S'fur'
p599
sI599
S'look'
p600
sI600
S'turtles'
p601
sI601
S'spiderman'
p602
sI602
S'caged'
p603
sI603
S'straight'
p604
sI604
S'aman'
p605
sI605
S'air'
p606
sI606
S'rope'
p607
sI607
S'siamese'
p608
sI608
S'near'
p609
sI609
S'miniature'
p610
sI610
S'pressed'
p611
sI611
S'landing'
p612
sI612
S'wild'
p613
sI613
S'chilling'
p614
sI614
S'eagle'
p615
sI615
S'pickup'
p616
sI616
S'is'
p617
sI617
S'it'
p618
sI618
S'surface'
p619
sI619
S'sleeping'
p620
sI620
S'middle'
p621
sI621
S'reads'
p622
sI622
S'itself'
p623
sI623
S'in'
p624
sI624
S'sits'
p625
sI625
S'hens'
p626
sI626
S'around'
p627
sI627
S'hound'
p628
sI628
S'shirt'
p629
sI629
S'suggests'
p630
sI630
S'bowl'
p631
sI631
S'same'
p632
sI632
S'beside'
p633
sI633
S'belly'
p634
sI634
S'wall'
p635
sI635
S'several'
p636
sI636
S'couple'
p637
sI637
S'hallway'
p638
sI638
S'barbed'
p639
sI639
S'ball'
p640
sI640
S'faces'
p641
sI641
S'leopard'
p642
sI642
S'hand'
p643
sI643
S'running'
p644
sI644
S'fruit'
p645
sI645
S'uses'
p646
sI646
S'climbing'
p647
sI647
S'wades'
p648
sI648
S'collar'
p649
sI649
S'hummingbird'
p650
sI650
S'off'
p651
sI651
S'center'
p652
sI652
S'older'
p653
sI653
S'chickens'
p654
sI654
S'fighting'
p655
sI655
S'ocean'
p656
sI656
S'person'
p657
sI657
S'edge'
p658
sI658
S'mother'
p659
sI659
S'telephone'
p660
sI660
S'the'
p661
sI661
S'left'
p662
sI662
S'background'
p663
sI663
S'sleeps'
p664
sI664
S'less'
p665
sI665
S'being'
p666
sI666
S'photo'
p667
sI667
S'desk'
p668
sI668
S'sleepy'
p669
sI669
S'flies'
p670
sI670
S'rest'
p671
sI671
S'snow'
p672
sI672
S'abar'
p673
sI673
S'front'
p674
sI674
S'circling'
p675
sI675
S'gated'
p676
sI676
S'halfway'
p677
sI677
S'family'
p678
sI678
S'furry'
p679
sI679
S'point'
p680
sI680
S'sky'
p681
sI681
S'lake'
p682
sI682
S'bench'
p683
sI683
S'eager'
p684
sI684
S'spread'
p685
sI685
S'pile'
p686
sI686
S'hind'
p687
sI687
S'furniture'
p688
sI688
S'hat'
p689
sI689
S'carpeting'
p690
sI690
S'big'
p691
sI691
S'showing'
p692
sI692
S'dark'
p693
sI693
S'boxer'
p694
sI694
S'five'
p695
sI695
S'mom'
p696
sI696
S'ledge'
p697
sI697
S'poses'
p698
sI698
S'lady'
p699
sI699
S'wings'
p700
sI700
S'flannel'
p701
sI701
S'shoulder'
p702
sI702
S'vertically'
p703
sI703
S'tail'
p704
sI704
S'towel'
p705
sI705
S'like'
p706
sI706
S'sofa'
p707
sI707
S'glove'
p708
sI708
S'facing'
p709
sI709
S'pavement'
p710
sI710
S'steps'
p711
sI711
S'nose'
p712
sI712
S'moggie'
p713
sI713
S'bunch'
p714
sI714
S'tower'
p715
sI715
S'kennel'
p716
sI716
S'perked'
p717
sI717
S'right'
p718
sI718
S'petting'
p719
sI719
S'people'
p720
sI720
S'some'
p721
sI721
S'back'
p722
sI722
S'dead'
p723
sI723
S'litter'
p724
sI724
S'husk'
p725
sI725
S'warmer'
p726
sI726
S'sight'
p727
sI727
S'table'
p728
sI728
S'underbelly'
p729
sI729
S'curious'
p730
sI730
S'humming'
p731
sI731
S'twig'
p732
sI732
S'for'
p733
sI733
S'bottom'
p734
sI734
S'pet'
p735
sI735
S'bedding'
p736
sI736
S'lean'
p737
sI737
S'pen'
p738
sI738
S'adorable'
p739
sI739
S'christmas'
p740
sI740
S'blurry'
p741
sI741
S'fencepost'
p742
sI742
S'be'
p743
sI743
S'khaki'
p744
sI744
S'run'
p745
sI745
S'raincoat'
p746
sI746
S'corn'
p747
sI747
S'each'
p748
sI748
S'rug'
p749
sI749
S'swan'
p750
sI750
S'step'
p751
sI751
S'lounges'
p752
sI752
S'eye'
p753
sI753
S'post'
p754
sI754
S'by'
p755
sI755
S'hiding'
p756
sI756
S'on'
p757
sI757
S'stone'
p758
sI758
S'getting'
p759
sI759
S'of'
p760
sI760
S'truck'
p761
sI761
S'birdbath'
p762
sI762
S'seeds'
p763
sI763
S'wolf'
p764
sI764
S'beige'
p765
sI765
S'puppies'
p766
sI766
S'shiny'
p767
sI767
S'book'
p768
sI768
S'road'
p769
sI769
S'swimming'
p770
sI770
S'owl'
p771
sI771
S'quietly'
p772
sI772
S'lands'
p773
sI773
S'moss'
p774
sI774
S'into'
p775
sI775
S'legged'
p776
sI776
S'arms'
p777
sI777
S'down'
p778
sI778
S'lies'
p779
sI779
S'abed'
p780
sI780
S'brush'
p781
sI781
S'old'
p782
sI782
S'feeders'
p783
sI783
S'sprawled'
p784
sI784
S'inspects'
p785
sI785
S'fabric'
p786
sI786
S'her'
p787
sI787
S'area'
p788
sI788
S'flying'
p789
sI789
S'fast'
p790
sI790
S'lounging'
p791
sI791
S'cats'
p792
sI792
S'low'
p793
sI793
S'way'
p794
sI794
S'garment'
p795
sI795
S'notices'
p796
sI796
S'head'
p797
sI797
S'kittens'
p798
sI798
S'poster'
p799
sI799
S'atop'
p800
sI800
S'amongst'
p801
sI801
S'curiously'
p802
sI802
S'construction'
p803
sI803
S'link'
p804
sI804
S'elderly'
p805
sI805
S'branch'
p806
sI806
S'hopes'
p807
sI807
S'crane'
p808
sI808
S'stand'
p809
sI809
S'with'
p810
sI810
S'relaxes'
p811
sI811
S'penguin'
p812
sI812
S'lifeguard'
p813
sI813
S'inside'
p814
sI814
S'landscaped'
p815
sI815
S'up'
p816
sI816
S'below'
p817
sI817
S'lays'
p818
sI818
S'site'
p819
sI819
S'blackbird'
p820
sI820
S'piece'
p821
sI821
S'enthusiastic'
p822
sI822
S'algae'
p823
sI823
S'geese'
p824
sI824
S'labrador'
p825
sI825
S'affectionate'
p826
sI826
S'stripped'
p827
sI827
S'watches'
p828
sI828
S'an'
p829
sI829
S'fly'
p830
sI830
S'as'
p831
sI831
S'regurgitating'
p832
sI832
S'curb'
p833
sI833
S'at'
p834
sI834
S'walks'
p835
sI835
S'graceful'
p836
sI836
S'floating'
p837
sI837
S'wintry'
p838
sI838
S'flock'
p839
sI839
S'film'
p840
sI840
S'cream'
p841
sI841
S'floor'
p842
sI842
S'dressed'
p843
sI843
S'clings'
p844
sI844
S'icy'
p845
sI845
S'field'
p846
sI846
S'nap'
p847
sI847
S'other'
p848
sI848
S'holding'
p849
sI849
S'puppy'
p850
sI850
S'picture'
p851
sI851
S'cardinals'
p852
sI852
S'crouching'
p853
sI853
S'reclines'
p854
sI854
S'stay'
p855
sI855
S'lens'
p856
sI856
S'smelling'
p857
sI857
S'prepares'
p858
sI858
S'structure'
p859
sI859
S'building'
p860
sI860
S'younger'
p861
sI861
S'napping'
p862
sI862
S'daily'
p863
sI863
S'jacket'
p864
sI864
S'purple'
p865
sI865
S'longed'
p866
sI866
S'lying'
p867
sI867
S'teeth'
p868
sI868
S'adult'
p869
s.