(lp0
S'2008_007324.jpg'
p1
aS'2008_004087.jpg'
p2
aS'2008_008376.jpg'
p3
aS'2008_000808.jpg'
p4
aS'2008_000641.jpg'
p5
aS'2008_008002.jpg'
p6
aS'2008_002395.jpg'
p7
aS'2008_004551.jpg'
p8
aS'2008_004653.jpg'
p9
aS'2008_003160.jpg'
p10
aS'2008_008354.jpg'
p11
aS'2008_007519.jpg'
p12
aS'2008_004328.jpg'
p13
aS'2008_000053.jpg'
p14
aS'2008_007888.jpg'
p15
aS'2008_007871.jpg'
p16
aS'2008_006130.jpg'
p17
aS'2008_001335.jpg'
p18
aS'2008_004362.jpg'
p19
aS'2008_007854.jpg'
p20
aS'2008_008194.jpg'
p21
aS'2008_004805.jpg'
p22
aS'2008_003580.jpg'
p23
aS'2008_000270.jpg'
p24
aS'2008_005046.jpg'
p25
aS'2008_006356.jpg'
p26
aS'2008_007039.jpg'
p27
aS'2008_001676.jpg'
p28
aS'2008_003607.jpg'
p29
aS'2008_005186.jpg'
p30
aS'2008_005160.jpg'
p31
aS'2008_004452.jpg'
p32
aS'2008_003484.jpg'
p33
aS'2008_006511.jpg'
p34
aS'2008_001673.jpg'
p35
aS'2008_000706.jpg'
p36
aS'2008_002399.jpg'
p37
aS'2008_005181.jpg'
p38
aS'2008_007567.jpg'
p39
aS'2008_003852.jpg'
p40
aS'2008_002845.jpg'
p41
aS'2008_007589.jpg'
p42
aS'2008_005882.jpg'
p43
aS'2008_005563.jpg'
p44
aS'2008_004760.jpg'
p45
aS'2008_003576.jpg'
p46
aS'2008_008404.jpg'
p47
aS'2008_004990.jpg'
p48
aS'2008_000620.jpg'
p49
aS'2008_006924.jpg'
p50
aS'2008_005857.jpg'
p51
aS'2008_005890.jpg'
p52
aS'2008_003087.jpg'
p53
aS'2008_007205.jpg'
p54
aS'2008_001829.jpg'
p55
aS'2008_004635.jpg'
p56
aS'2008_005823.jpg'
p57
aS'2008_000116.jpg'
p58
aS'2008_001836.jpg'
p59
aS'2008_005065.jpg'
p60
aS'2008_003997.jpg'
p61
aS'2008_003222.jpg'
p62
aS'2008_007537.jpg'
p63
aS'2008_005208.jpg'
p64
aS'2008_008490.jpg'
p65
aS'2008_002329.jpg'
p66
aS'2008_007478.jpg'
p67
aS'2008_001592.jpg'
p68
aS'2008_000138.jpg'
p69
aS'2008_002410.jpg'
p70
aS'2008_005614.jpg'
p71
aS'2008_000182.jpg'
p72
aS'2008_005252.jpg'
p73
aS'2008_005279.jpg'
p74
aS'2008_005798.jpg'
p75
aS'2008_001020.jpg'
p76
aS'2008_007587.jpg'
p77
aS'2008_004044.jpg'
p78
aS'2008_008185.jpg'
p79
aS'2008_007496.jpg'
p80
aS'2008_004498.jpg'
p81
aS'2008_005240.jpg'
p82
aS'2008_003772.jpg'
p83
aS'2008_004528.jpg'
p84
aS'2008_007498.jpg'
p85
aS'2008_001885.jpg'
p86
aS'2008_002471.jpg'
p87
aS'2008_005831.jpg'
p88
aS'2008_006081.jpg'
p89
aS'2008_008347.jpg'
p90
aS'2008_005924.jpg'
p91
aS'2008_003232.jpg'
p92
aS'2008_006186.jpg'
p93
aS'2008_006403.jpg'
p94
aS'2008_001895.jpg'
p95
aS'2008_000897.jpg'
p96
aS'2008_004303.jpg'
p97
aS'2008_006956.jpg'
p98
aS'2008_000227.jpg'
p99
aS'2008_003622.jpg'
p100
aS'2008_007176.jpg'
p101
aS'2008_004689.jpg'
p102
aS'2008_007003.jpg'
p103
aS'2008_005386.jpg'
p104
aS'2008_000095.jpg'
p105
aS'2008_001220.jpg'
p106
aS'2008_004347.jpg'
p107
aS'2008_007855.jpg'
p108
aS'2008_008461.jpg'
p109
aS'2008_003244.jpg'
p110
aS'2008_002067.jpg'
p111
aS'2008_002441.jpg'
p112
aS'2008_001290.jpg'
p113
aS'2008_007363.jpg'
p114
aS'2008_003133.jpg'
p115
aS'2008_004783.jpg'
p116
aS'2008_005003.jpg'
p117
aS'2008_005469.jpg'
p118
aS'2008_002970.jpg'
p119
aS'2008_003063.jpg'
p120
aS'2008_004873.jpg'
p121
aS'2008_007317.jpg'
p122
aS'2008_000670.jpg'
p123
aS'2008_007839.jpg'
p124
aS'2008_005774.jpg'
p125
aS'2008_001070.jpg'
p126
aS'2008_004950.jpg'
p127
aS'2008_002201.jpg'
p128
aS'2008_006281.jpg'
p129
aS'2008_004745.jpg'
p130
aS'2008_005449.jpg'
p131
aS'2008_001479.jpg'
p132
aS'2008_002536.jpg'
p133
aS'2008_004833.jpg'
p134
aS'2008_002294.jpg'
p135
aS'2008_007948.jpg'
p136
aS'2008_004973.jpg'
p137
aS'2008_007694.jpg'
p138
aS'2008_004931.jpg'
p139
aS'2008_001285.jpg'
p140
aS'2008_002859.jpg'
p141
aS'2008_000345.jpg'
p142
aS'2008_006602.jpg'
p143
aS'2008_006194.jpg'
p144
aS'2008_006384.jpg'
p145
aS'2008_006999.jpg'
p146
aS'2008_006667.jpg'
p147
aS'2008_005757.jpg'
p148
aS'2008_002749.jpg'
p149
aS'2008_007752.jpg'
p150
a.