(dp0
S'crumpled'
p1
I1
sS'coach'
p2
I2
sS'furry'
p3
I705
sS'chain'
p4
I4
sS'birdcage'
p5
I5
sS'saver'
p6
I6
sS'child'
p7
I618
sS'parakeets'
p8
I7
sS'yellow'
p9
I8
sS'four'
p10
I9
sS'woods'
p11
I10
sS'sleep'
p12
I11
sS'asian'
p13
I12
sS'railing'
p14
I66
sS'chair'
p15
I15
sS'bomber'
p16
I16
sS'carpet'
p17
I17
sS'feeding'
p18
I18
sS'windowsill'
p19
I19
sS'hovers'
p20
I20
sS'lining'
p21
I22
sS'fenced'
p22
I24
sS'young'
p23
I25
sS'to'
p24
I26
sS'tail'
p25
I27
sS'chewing'
p26
I28
sS'under'
p27
I29
sS'gravel'
p28
I30
sS'brown'
p29
I32
sS'fatigues'
p30
I33
sS'woman'
p31
I34
sS'garden'
p32
I35
sS'sitting'
p33
I36
sS'very'
p34
I37
sS'talons'
p35
I38
sS'blanket'
p36
I39
sS'kitty'
p37
I218
sS'fat'
p38
I41
sS'wavy'
p39
I42
sS'putting'
p40
I43
sS'kitten'
p41
I44
sS'locked'
p42
I45
sS'drinking'
p43
I46
sS'hillside'
p44
I471
sS'wooded'
p45
I48
sS'parrot'
p46
I49
sS'mothers'
p47
I50
sS'wooden'
p48
I51
sS'laying'
p49
I52
sS'bright'
p50
I473
sS'cloudy'
p51
I54
sS'large'
p52
I55
sS'spiderman'
p53
I624
sS'sand'
p54
I57
sS'teal'
p55
I58
sS'plain'
p56
I625
sS'small'
p57
I60
sS'along!'
p58
I61
sS'round'
p59
I62
sS'clothes'
p60
I63
sS'fence'
p61
I64
sS'tired'
p62
I65
sS'hanging'
p63
I13
sS'feathers'
p64
I67
sS'knitted'
p65
I68
sS'perched'
p66
I478
sS'street'
p67
I70
sS'pajamas'
p68
I72
sS'shining'
p69
I73
sS'blue'
p70
I74
sS'cargo'
p71
I75
sS'what'
p72
I76
sS'plays'
p73
I77
sS'stands'
p74
I78
sS'sweetly'
p75
I79
sS'sun'
p76
I80
sS'hovering'
p77
I393
sS'sofa,'
p78
I82
sS'uniform'
p79
I83
sS'lovebird'
p80
I84
sS'poles'
p81
I86
sS'lazily'
p82
I87
sS'above'
p83
I88
sS'new'
p84
I89
sS'reclines'
p85
I90
sS'bird'
p86
I91
sS'filled'
p87
I92
sS'body'
p88
I93
sS'shoreline'
p89
I95
sS'gathered'
p90
I96
sS'pushing'
p91
I97
sS'floats'
p92
I609
sS'water'
p93
I98
sS'dressed'
p94
I874
sS'coloring'
p95
I482
sS'dune'
p96
I334
sS'others'
p97
I101
sS'directions'
p98
I102
sS'along'
p99
I103
sS'coverlet'
p100
I104
sS'dry'
p101
I105
sS'boy'
p102
I106
sS'great'
p103
I107
sS'beanbag'
p104
I108
sS'daughter'
p105
I109
sS'colored'
p106
I110
sS'ahead'
p107
I111
sS'glove-covered'
p108
I112
sS'siamese'
p109
I113
sS'morsels'
p110
I114
sS'stretching'
p111
I115
sS'suggests'
p112
I116
sS'red,'
p113
I117
sS'pick'
p114
I118
sS'climb'
p115
I119
sS'hunting'
p116
I120
sS'pillow'
p117
I121
sS"ocean's"
p118
I122
sS'golden'
p119
I123
sS'swan'
p120
I124
sS'family'
p121
I125
sS'straw'
p122
I126
sS'cow-schemed,'
p123
I127
sS'light-colored'
p124
I128
sS'duck'
p125
I130
sS'limb'
p126
I131
sS'dachshund'
p127
I132
sS'market'
p128
I133
sS'bent'
p129
I134
sS'standing'
p130
I135
sS'fed'
p131
I136
sS'from'
p132
I137
sS'scaffolding'
p133
I138
sS'army'
p134
I139
sS'wicker'
p135
I140
sS'sweater'
p136
I141
sS'two'
p137
I142
sS'next'
p138
I143
sS'few'
p139
I144
sS'camera'
p140
I145
sS'prey'
p141
I146
sS'wondering'
p142
I147
sS'eagles'
p143
I148
sS'long-legged'
p144
I149
sS'more'
p145
I150
sS'sharing'
p146
I151
sS'door'
p147
I152
sS'porch'
p148
I153
sS'grabbing'
p149
I154
sS'cats,'
p150
I155
sS'stone'
p151
I789
sS'it'
p152
I641
sS'grate'
p153
I840
sS'basket,'
p154
I158
sS'backwards'
p155
I179
sS'stick'
p156
I160
sS'baby'
p157
I161
sS'midst'
p158
I162
sS'hold'
p159
I163
sS'osprey'
p160
I164
sS'fur-covered'
p161
I165
sS'women'
p162
I166
sS'fly'
p163
I167
sS'cay'
p164
I169
sS"puppy's"
p165
I170
sS"bulldog's"
p166
I171
sS'room'
p167
I172
sS'this'
p168
I174
sS'car'
p169
I175
sS'wintry'
p170
I869
sS'cat'
p171
I176
sS'nine'
p172
I177
sS'can'
p173
I178
sS'chin'
p174
I180
sS'seagull'
p175
I181
sS'bites'
p176
I182
sS'beautiful'
p177
I183
sS'grassy'
p178
I184
sS'stream'
p179
I185
sS'halloween'
p180
I186
sS'near'
p181
I633
sS'high'
p182
I168
sS'tag'
p183
I189
sS'posing'
p184
I190
sS'something'
p185
I191
sS'admires'
p186
I192
sS'pond'
p187
I193
sS'tan'
p188
I194
sS'paws'
p189
I195
sS'clothing'
p190
I196
sS'multi-colored'
p191
I573
sS'pink'
p192
I197
sS'huge'
p193
I198
sS'end'
p194
I199
sS'winter'
p195
I200
sS'sit'
p196
I201
sS'holds'
p197
I202
sS'preening'
p198
I203
sS'glowing'
p199
I204
sS'green-eyed'
p200
I276
sS'animal'
p201
I206
sS'hugs'
p202
I207
sS'gate'
p203
I209
sS'toddler'
p204
I210
sS'beach'
p205
I211
sS'stock'
p206
I302
sS'profile'
p207
I213
sS'egret'
p208
I214
sS'plant'
p209
I215
sS'pokes'
p210
I216
sS'staircase'
p211
I217
sS'sunny'
p212
I187
sS'waters'
p213
I219
sS'after'
p214
I220
sS'tied'
p215
I221
sS'lay'
p216
I222
sS'waves'
p217
I223
sS'hawk'
p218
I225
sS'terrier'
p219
I226
sS'aviator'
p220
I227
sS'headdress'
p221
I228
sS'stroked'
p222
I300
sS'a'
p223
I230
sS'close-up'
p224
I231
sS'branches'
p225
I232
sS'neck'
p226
I233
sS'brown,'
p227
I234
sS'coat'
p228
I412
sS'eats'
p229
I238
sS'shore'
p230
I240
sS'upside'
p231
I241
sS'basket'
p232
I242
sS'tall'
p233
I243
sS'pulled'
p234
I244
sS'playing'
p235
I254
sS'patio'
p236
I246
sS'cute'
p237
I247
sS'office'
p238
I248
sS'deck'
p239
I249
sS'over'
p240
I252
sS'displayed'
p241
I253
sS'held'
p242
I255
sS'mallard'
p243
I256
sS'through'
p244
I257
sS'costume'
p245
I40
sS'smiling'
p246
I259
sS'birds'
p247
I260
sS'bunch'
p248
I261
sS'limbs'
p249
I262
sS'chihuahua'
p250
I263
sS'yawning'
p251
I264
sS'monitor'
p252
I265
sS'carpeted'
p253
I266
sS'broom'
p254
I267
sS'heron'
p255
I268
sS'yorkshire'
p256
I269
sS'window'
p257
I270
sS'turban'
p258
I271
sS'orange'
p259
I272
sS'covered'
p260
I14
sS'might'
p261
I274
sS'into'
p262
I807
sS'forest'
p263
I205
sS'apron'
p264
I277
sS'them'
p265
I278
sS'someone'
p266
I279
sS'doghouse'
p267
I280
sS'food'
p268
I281
sS'material'
p269
I282
sS'petted'
p270
I666
sS'birds,'
p271
I516
sS'underneath'
p272
I285
sS'band'
p273
I286
sS'snowball'
p274
I287
sS'hands'
p275
I288
sS'front'
p276
I289
sS'one'
p277
I361
sS'cage'
p278
I291
sS'day'
p279
I292
sS'bank'
p280
I293
sS'bread'
p281
I294
sS'several'
p282
I661
sS'name'
p283
I295
sS'drop'
p284
I296
sS'rocks'
p285
I297
sS'sniffing'
p286
I298
sS'fuzz'
p287
I299
sS'rock'
p288
I301
sS'shaking'
p289
I303
sS'side'
p290
I304
sS'bone'
p291
I305
sS'directly'
p292
I365
sS'garment'
p293
I21
sS'fish'
p294
I309
sS'hard'
p295
I310
sS'multicolored'
p296
I312
sS'goose'
p297
I313
sS'comforter'
p298
I366
sS'books'
p299
I315
sS'scratching'
p300
I316
sS'flock'
p301
I317
sS'enclosure'
p302
I318
sS'sandy'
p303
I319
sS'out'
p304
I320
sS'flower'
p305
I321
sS'pigeon'
p306
I322
sS'looking'
p307
I323
sS'stuff'
p308
I525
sS'print'
p309
I325
sS"water's"
p310
I326
sS'red'
p311
I327
sS'eagle'
p312
I328
sS'bald'
p313
I667
sS'dirt'
p314
I331
sS'seagulls'
p315
I668
sS'pug'
p316
I333
sS'holding'
p317
I881
sS'cart'
p318
I100
sS'yellow.curtains'
p319
I335
sS'crouches'
p320
I336
sS'pendant'
p321
I337
sS'heads'
p322
I373
sS'hand'
p323
I669
sS'steering'
p324
I329
sS'retrieves'
p325
I341
sS'fabric'
p326
I818
sS'shaggy'
p327
I159
sS'yard'
p328
I344
sS'shelves'
p329
I345
sS'backside'
p330
I346
sS'could'
p331
I347
sS"woman's"
p332
I348
sS'ostrich'
p333
I349
sS'benji'
p334
I350
sS'american'
p335
I351
sS'black,'
p336
I352
sS'view'
p337
I353
sS'onto'
p338
I354
sS'st.'
p339
I375
sS'feed'
p340
I356
sS'flying'
p341
I821
sS'coming'
p342
I358
sS'scene'
p343
I359
sS'feeder'
p344
I290
sS'feet'
p345
I362
sS'gazes'
p346
I363
sS'long'
p347
I822
sS'another'
p348
I307
sS'owner'
p349
I314
sS'thick'
p350
I367
sS'tame'
p351
I823
sS'open'
p352
I369
sS'sheep'
p353
I370
sS'little'
p354
I371
sS'toy'
p355
I372
sS'sheet'
p356
I338
sS'monkey'
p357
I374
sS'cloths'
p358
I827
sS'together'
p359
I896
sS'top'
p360
I355
sS'plastic'
p361
I376
sS'stork'
p362
I377
sS'their'
p363
I378
sS'leash'
p364
I379
sS'station'
p365
I380
sS'stuffed'
p366
I85
sS'lab'
p367
I382
sS'white'
p368
I383
sS'man'
p369
I229
sS'dogs'
p370
I385
sS'beard'
p371
I386
sS'eyes'
p372
I387
sS'saint'
p373
I381
sS'pushes'
p374
I808
sS'that'
p375
I390
sS'handler'
p376
I831
sS'lean-to'
p377
I391
sS'shallow'
p378
I392
sS'part'
p379
I394
sS'eyed'
p380
I395
sS'somewhat'
p381
I396
sS'fuzzy'
p382
I397
sS'flowers'
p383
I398
sS'stairs'
p384
I399
sS'critter'
p385
I400
sS'lays'
p386
I851
sS'steel'
p387
I401
sS'distance'
p388
I402
sS'dog,'
p389
I403
sS'legs'
p390
I384
sS'wet'
p391
I713
sS'tree'
p392
I404
sS'grey'
p393
I405
sS'seated'
p394
I3
sS'bee'
p395
I407
sS'coats'
p396
I408
sS'girl,'
p397
I409
sS'iron'
p398
I411
sS'light'
p399
I534
sS'asleep'
p400
I537
sS'toward'
p401
I414
sS'wandering'
p402
I415
sS'are'
p403
I538
sS'and'
p404
I416
sS'bridge'
p405
I417
sS'thistle'
p406
I539
sS'awaking'
p407
I612
sS'greyhound'
p408
I421
sS'chasing'
p409
I422
sS'ginger'
p410
I423
sS'comfortable'
p411
I424
sS'seed'
p412
I425
sS'sidewalk'
p413
I426
sS'distorted'
p414
I427
sS'leopard-printed'
p415
I428
sS'slab'
p416
I653
sS'viewed'
p417
I173
sS'skullcap'
p418
I388
sS'lie'
p419
I431
sS'calico'
p420
I843
sS'concrete'
p421
I684
sS'snow'
p422
I433
sS'camouflage'
p423
I434
sS'couch'
p424
I435
sS'dining'
p425
I436
sS'chest'
p426
I437
sS'materials'
p427
I685
sS'take'
p428
I439
sS'green'
p429
I442
sS'glassware'
p430
I443
sS'folders'
p431
I444
sS'play'
p432
I445
sS'towards'
p433
I446
sS'multiple'
p434
I447
sS'combat'
p435
I448
sS'opposite'
p436
I449
sS'track'
p437
I450
sS'miniature'
p438
I451
sS'goldfinch'
p439
I527
sS'most'
p440
I452
sS'mouth'
p441
I453
sS'amongst'
p442
I834
sS'moss'
p443
I455
sS'flannel'
p444
I731
sS'bluebird'
p445
I456
sS'patterned'
p446
I457
sS'lawn'
p447
I458
sS'constructed'
p448
I872
sS'clear'
p449
I459
sS'metal'
p450
I460
sS'dog'
p451
I461
sS'wing'
p452
I245
sS'guiltily'
p453
I463
sS'barren'
p454
I464
sS'away'
p455
I544
sS'lying'
p456
I466
sS'walking'
p457
I467
sS'selection'
p458
I468
sS'shot'
p459
I469
sS'perches'
p460
I470
sS'padded'
p461
I47
sS'swooping'
p462
I767
sS'colors'
p463
I53
sS'railing,'
p464
I475
sS'parked'
p465
I476
sS'headshot'
p466
I477
sS'superimposed'
p467
I69
sS'rough'
p468
I479
sS"man's"
p469
I480
sS'curled'
p470
I250
sS'snack'
p471
I99
sS'soldier'
p472
I652
sS'unfinished'
p473
I483
sS'jay'
p474
I484
sS'less'
p475
I692
sS'behind'
p476
I546
sS'jackethalter'
p477
I129
sS'relaxes'
p478
I489
sS'bernard'
p479
I490
sS'bush'
p480
I491
sS'wood'
p481
I492
sS'black'
p482
I493
sS'pretty'
p483
I494
sS'green,'
p484
I495
sS'blinds'
p485
I496
sS'large,'
p486
I497
sS'wearing'
p487
I498
sS'schnauzer'
p488
I499
sS'his'
p489
I500
sS'pets'
p490
I549
sS'colorful'
p491
I502
sS'get'
p492
I503
sS'domestic'
p493
I696
sS'watch'
p494
I23
sS'stripes'
p495
I506
sS'cardinals'
p496
I283
sS'colorful,'
p497
I508
sS'beam'
p498
I509
sS'reading'
p499
I552
sS'cushion'
p500
I511
sS'beak'
p501
I512
sS'striped'
p502
I513
sS'sill'
p503
I514
sS'gray'
p504
I515
sS'runs'
p505
I284
sS'gloved'
p506
I517
sS'bar'
p507
I518
sS'leather'
p508
I519
sS'tabby'
p509
I520
sS'licking'
p510
I521
sS'bay'
p511
I522
sS'necked'
p512
I523
sS'bag'
p513
I524
sS'penguins'
p514
I486
sS'river'
p515
I526
sS'looks'
p516
I258
sS'spotted'
p517
I528
sS'set'
p518
I529
sS'scruffy'
p519
I530
sS'fluffy'
p520
I531
sS'groggy'
p521
I532
sS'lazy'
p522
I533
sS'canine'
p523
I311
sS'up'
p524
I849
sS'computer'
p525
I536
sS'bare'
p526
I413
sS'bed'
p527
I406
sS'sea'
p528
I419
sS'seal'
p529
I420
sS'sleeping'
p530
I643
sS'close'
p531
I541
sS'wire'
p532
I542
sS'stairs,'
p533
I543
sS'cow-patterned'
p534
I465
sS'its'
p535
I545
sS'outside'
p536
I487
sS'ginger,'
p537
I547
sS'plywood'
p538
I548
sS'closed'
p539
I501
sS'between'
p540
I550
sS'before'
p541
I208
sS'across'
p542
I553
sS'pants'
p543
I719
sS'knowing'
p544
I555
sS'herding'
p545
I235
sS'checkered'
p546
I557
sS'vertical'
p547
I558
sS'screen'
p548
I559
sS'outdoors'
p549
I560
sS'<NUL>'
p550
I0
sS'dome'
p551
I561
sS'uncompleted'
p552
I562
sS'peering'
p553
I563
sS'licks'
p554
I564
sS'feeders,'
p555
I565
sS'group'
p556
I566
sS'outfit'
p557
I567
sS'staring'
p558
I360
sS'faced'
p559
I569
sS'both'
p560
I570
sS'grass'
p561
I853
sS'taking'
p562
I572
sS'purple'
p563
I899
sS'sleeps'
p564
I691
sS'faces'
p565
I474
sS'grooming'
p566
I574
sS'finds'
p567
I575
sS'among'
p568
I576
sS'flies'
p569
I577
sS'tone'
p570
I578
sS'bell'
p571
I579
sS'wall'
p572
I580
sS'sweet'
p573
I581
sS'each'
p574
I777
sS'side,'
p575
I855
sS'walk'
p576
I582
sS'pole'
p577
I583
sS'stretched'
p578
I584
sS'table'
p579
I585
sS'blonde'
p580
I586
sS'desktop'
p581
I709
sS'shoulder,'
p582
I588
sS'bumble-bee'
p583
I589
sS'consuming'
p584
I590
sS'flowered'
p585
I591
sS'naps'
p586
I592
sS'fallen'
p587
I593
sS'long-necked'
p588
I594
sS'eager'
p589
I710
sS'longed-haired'
p590
I596
sS"it's"
p591
I597
sS'bumblebee'
p592
I598
sS'three'
p593
I599
sS'tiny'
p594
I600
sS'quickly'
p595
I601
sS'tropical'
p596
I602
sS'pc'
p597
I603
sS'treat'
p598
I604
sS'interest'
p599
I605
sS'peaceful'
p600
I606
sS'curtain'
p601
I607
sS'foreground'
p602
I608
sS'kitchen'
p603
I568
sS'roped'
p604
I610
sS'resting'
p605
I611
sS'shopping'
p606
I613
sS'relaxing'
p607
I614
sS'sunshine'
p608
I615
sS'worker'
p609
I616
sS'wires'
p610
I665
sS'tiger'
p611
I617
sS'suspension'
p612
I273
sS'standing,'
p613
I619
sS'pilot'
p614
I620
sS'plaid'
p615
I621
sS'look'
p616
I622
sS'turtles'
p617
I623
sS'frozen'
p618
I56
sS'caged'
p619
I59
sS'straight'
p620
I626
sS'blue-green'
p621
I627
sS'as'
p622
I862
sS'air'
p623
I630
sS'rope'
p624
I631
sS'rests'
p625
I632
sS'while'
p626
I81
sS'dog-clothing'
p627
I863
sS'pressed'
p628
I635
sS'wild'
p629
I636
sS"person's"
p630
I637
sS'chilling'
p631
I638
sS'pickup'
p632
I639
sS'is'
p633
I640
sS'site'
p634
I157
sS'surface'
p635
I642
sS'ducks'
p636
I410
sS'middle'
p637
I644
sS'reads'
p638
I645
sS'itself'
p639
I646
sS'in'
p640
I647
sS'sits'
p641
I648
sS'hens'
p642
I649
sS'around'
p643
I716
sS'hound'
p644
I650
sS'shirt'
p645
I651
sS'paw'
p646
I237
sS'bowl'
p647
I654
sS'same'
p648
I655
sS'beside'
p649
I657
sS'batting'
p650
I430
sS'pecking'
p651
I659
sS'mid-run'
p652
I717
sS'feather'
p653
I656
sS'showing'
p654
I718
sS'hallway'
p655
I663
sS'barbed'
p656
I664
sS'ball'
p657
I488
sS'drink'
p658
I330
sS'upon'
p659
I332
sS'alert'
p660
I339
sS"emu's"
p661
I505
sS'running'
p662
I670
sS'fruit'
p663
I671
sS'uses'
p664
I672
sS'climbing'
p665
I673
sS'on'
p666
I788
sS'collar'
p667
I675
sS'hummingbird'
p668
I676
sS'off'
p669
I677
sS'center'
p670
I678
sS'older'
p671
I679
sS'chickens'
p672
I681
sS'fighting'
p673
I224
sS'ocean'
p674
I683
sS'person'
p675
I432
sS'edge'
p676
I438
sS'roosters'
p677
I343
sS'telephone'
p678
I687
sS'the'
p679
I688
sS'left'
p680
I689
sS'mom'
p681
I725
sS'just'
p682
I306
sS'object'
p683
I682
sS'being'
p684
I693
sS'photo'
p685
I694
sS'long-haired'
p686
I726
sS'sleepy'
p687
I504
sS'stretches'
p688
I697
sS'gulls'
p689
I510
sS'abar'
p690
I699
sS'flea'
p691
I700
sS'circling'
p692
I701
sS'gated'
p693
I702
sS'rest'
p694
I698
sS'halfway'
p695
I703
sS'stray'
p696
I704
sS'mother'
p697
I686
sS'photographer'
p698
I418
sS'point'
p699
I706
sS'sky'
p700
I707
sS'lake'
p701
I708
sS'bench'
p702
I587
sS'source'
p703
I595
sS'spread'
p704
I711
sS'pile'
p705
I712
sS'belly'
p706
I658
sS'hind'
p707
I236
sS'has'
p708
I714
sS'hat'
p709
I715
sS'book'
p710
I879
sS'carpeting'
p711
I540
sS'big'
p712
I660
sS'couple'
p713
I662
sS'dark'
p714
I720
sS'than'
p715
I721
sS'grey,'
p716
I722
sS'boxer'
p717
I723
sS'five'
p718
I724
sS'background'
p719
I690
sS'desk'
p720
I695
sS'poses'
p721
I727
sS'lady'
p722
I728
sS'wings'
p723
I729
sS'color'
p724
I730
sS'furniture'
p725
I31
sS'shoulder'
p726
I732
sS'vertically'
p727
I733
sS'puppy'
p728
I882
sS'towel'
p729
I735
sS'like'
p730
I736
sS'sofa'
p731
I737
sS'adult'
p732
I903
sS'facing'
p733
I738
sS'pavement'
p734
I739
sS'steps'
p735
I740
sS'nose'
p736
I741
sS'moggie'
p737
I742
sS'woman,'
p738
I743
sS'tower'
p739
I744
sS'kennel'
p740
I745
sS'framed'
p741
I809
sS'perked'
p742
I746
sS'right'
p743
I747
sS'old'
p744
I748
sS'people'
p745
I749
sS'some'
p746
I750
sS'serene'
p747
I551
sS'elderly'
p748
I752
sS'litter'
p749
I753
sS'husk'
p750
I754
sS'warmer'
p751
I755
sS'sight'
p752
I756
sS'brindle'
p753
I757
sS'underbelly'
p754
I758
sS'curious'
p755
I759
sS'humming'
p756
I760
sS'twig'
p757
I761
sS'for'
p758
I762
sS'bottom'
p759
I763
sS'pet'
p760
I764
sS'bedding'
p761
I765
sS'pen'
p762
I766
sS'adorable'
p763
I768
sS'christmas'
p764
I769
sS'blurry'
p765
I770
sS'fencepost'
p766
I771
sS'be'
p767
I772
sS'aman'
p768
I629
sS'eating'
p769
I774
sS'raincoat'
p770
I775
sS'corn'
p771
I776
sS'pose'
p772
I94
sS'trees'
p773
I507
sS'rug'
p774
I778
sS'stem'
p775
I779
sS'floral-patterned'
p776
I780
sS'step'
p777
I781
sS'lounges'
p778
I782
sS'eye'
p779
I783
sS'post'
p780
I784
sS'by'
p781
I785
sS'hiding'
p782
I786
sS'closeup'
p783
I787
sS'wades'
p784
I674
sS'about'
p785
I156
sS'getting'
p786
I790
sS'of'
p787
I791
sS'&'
p788
I792
sS'truck'
p789
I793
sS'birdbath'
p790
I794
sS'seeds'
p791
I795
sS'wolf'
p792
I796
sS'beige'
p793
I212
sS'puppies'
p794
I798
sS'shiny'
p795
I799
sS'or'
p796
I239
sS'road'
p797
I801
sS'swimming'
p798
I802
sS'owl'
p799
I803
sS'quietly'
p800
I804
sS'lands'
p801
I805
sS'sheets'
p802
I806
sS'image'
p803
I275
sS'arms'
p804
I71
sS'down'
p805
I810
sS'lies'
p806
I811
sS'abed'
p807
I812
sS'brush'
p808
I813
sS'petting'
p809
I814
sS'feeders'
p810
I815
sS'sprawled'
p811
I816
sS'inspects'
p812
I817
sS'log'
p813
I342
sS'her'
p814
I819
sS'area'
p815
I820
sS'there'
p816
I357
sS'fast'
p817
I364
sS'lounging'
p818
I368
sS'cats'
p819
I824
sS'low'
p820
I825
sS'way'
p821
I826
sS'house'
p822
I308
sS'notices'
p823
I828
sS'carrying'
p824
I900
sS'head'
p825
I829
sS'kittens'
p826
I830
sS'poster'
p827
I440
sS'atop'
p828
I832
sS'bite'
p829
I833
sS'landing'
p830
I454
sS'back'
p831
I751
sS'curiously'
p832
I835
sS'construction'
p833
I836
sS'link'
p834
I837
sS'dead'
p835
I838
sS'white,'
p836
I839
sS'hopes'
p837
I472
sS'crane'
p838
I841
sS'stand'
p839
I797
sS'with'
p840
I842
sS'outpost'
p841
I429
sS'penguin'
p842
I844
sS'lifeguard'
p843
I845
sS'type'
p844
I846
sS'inside'
p845
I847
sS'landscaped'
p846
I848
sS'yorkie'
p847
I535
sS'below'
p848
I850
sS'dirty'
p849
I554
sS'blackbird'
p850
I852
sS'piece'
p851
I571
sS'enthusiastic'
p852
I854
sS'algae'
p853
I340
sS'geese'
p854
I856
sS'labrador'
p855
I857
sS'affectionate'
p856
I858
sS'khaki'
p857
I773
sS'stripped'
p858
I859
sS'watches'
p859
I860
sS'an'
p860
I861
sS'wide-eyed'
p861
I628
sS'regurgitating'
p862
I634
sS'curb'
p863
I864
sS'at'
p864
I865
sS'walks'
p865
I866
sS'graceful'
p866
I867
sS'floating'
p867
I868
sS'face'
p868
I462
sS'girl'
p869
I870
sS'film'
p870
I871
sS'cream'
p871
I441
sS'floor'
p872
I680
sS'ends'
p873
I556
sS'swats'
p874
I188
sS'clings'
p875
I875
sS'icy'
p876
I876
sS'field'
p877
I877
sS'nap'
p878
I878
sS'other'
p879
I800
sS'a.marsh'
p880
I880
sS'branch'
p881
I324
sS'tarp'
p882
I734
sS'picture'
p883
I883
sS'crouching'
p884
I884
sS'ears'
p885
I885
sS'stay'
p886
I886
sS'lens'
p887
I887
sS'ground'
p888
I481
sS'smelling'
p889
I888
sS'prepares'
p890
I889
sS'chocolate'
p891
I890
sS'structure'
p892
I891
sS'building'
p893
I892
sS'younger'
p894
I893
sS'napping'
p895
I894
sS'ledge'
p896
I895
sS'daily'
p897
I485
sS'attacking'
p898
I897
sS'jacket'
p899
I898
sS"dog's"
p900
I873
sS'train'
p901
I251
sS'incomplete'
p902
I901
sS'teeth'
p903
I902
sS'flapping'
p904
I389
s.