(dp0
S'crumpled'
p1
I1
sS'coach'
p2
I2
sS'furry'
p3
I678
sS'chain'
p4
I4
sS'birdcage'
p5
I5
sS'saver'
p6
I6
sS'child'
p7
I594
sS'parakeets'
p8
I7
sS'yellow'
p9
I8
sS'four'
p10
I9
sS'woods'
p11
I10
sS'sleep'
p12
I11
sS'asian'
p13
I12
sS'hanging'
p14
I63
sS'chair'
p15
I14
sS'bomber'
p16
I15
sS'carpet'
p17
I17
sS'feeding'
p18
I18
sS'hunting'
p19
I19
sS'hovers'
p20
I20
sS'garment'
p21
I794
sS'lining'
p22
I21
sS'fenced'
p23
I23
sS'young'
p24
I24
sS'to'
p25
I25
sS'flowered'
p26
I26
sS'chewing'
p27
I27
sS'under'
p28
I28
sS'gravel'
p29
I29
sS'brown'
p30
I30
sS'fatigues'
p31
I31
sS'woman'
p32
I32
sS'garden'
p33
I33
sS'sitting'
p34
I34
sS'very'
p35
I35
sS'talons'
p36
I36
sS'blanket'
p37
I37
sS'kitty'
p38
I205
sS'fat'
p39
I39
sS'wavy'
p40
I40
sS'putting'
p41
I41
sS'suggests'
p42
I629
sS'kitten'
p43
I42
sS'drinking'
p44
I43
sS'hillside'
p45
I457
sS'wooded'
p46
I45
sS'parrot'
p47
I46
sS'mothers'
p48
I47
sS'wooden'
p49
I48
sS'laying'
p50
I49
sS'bright'
p51
I459
sS'cloudy'
p52
I51
sS'large'
p53
I52
sS'spiderman'
p54
I601
sS'sand'
p55
I54
sS'teal'
p56
I55
sS'caged'
p57
I602
sS'small'
p58
I57
sS'sidewalk'
p59
I58
sS'round'
p60
I59
sS'clothes'
p61
I60
sS'the'
p62
I660
sS'fence'
p63
I61
sS'tired'
p64
I62
sS'railing'
p65
I13
sS'feathers'
p66
I64
sS'knitted'
p67
I65
sS'perched'
p68
I463
sS'street'
p69
I67
sS'run'
p70
I744
sS'arms'
p71
I776
sS'pajamas'
p72
I69
sS'shining'
p73
I70
sS'blue'
p74
I71
sS'cargo'
p75
I72
sS'what'
p76
I73
sS'plays'
p77
I74
sS'stands'
p78
I75
sS'sweetly'
p79
I76
sS'sun'
p80
I77
sS'hovering'
p81
I379
sS'uniform'
p82
I79
sS'lovebird'
p83
I80
sS'poles'
p84
I81
sS'lazily'
p85
I82
sS'above'
p86
I83
sS'new'
p87
I84
sS'curled'
p88
I465
sS'bird'
p89
I86
sS'filled'
p90
I87
sS'body'
p91
I88
sS'shoreline'
p92
I90
sS'gathered'
p93
I91
sS'pushing'
p94
I92
sS'water'
p95
I94
sS'dressed'
p96
I842
sS'snack'
p97
I466
sS'dune'
p98
I316
sS'others'
p99
I97
sS'directions'
p100
I98
sS'along'
p101
I99
sS'coverlet'
p102
I101
sS'dry'
p103
I102
sS'boy'
p104
I103
sS'great'
p105
I104
sS'beanbag'
p106
I105
sS'daughter'
p107
I106
sS'colored'
p108
I107
sS'ahead'
p109
I108
sS'rests'
p110
I109
sS'morsels'
p111
I110
sS'stretching'
p112
I111
sS'soldier'
p113
I113
sS'pick'
p114
I114
sS'climb'
p115
I115
sS'pillow'
p116
I116
sS'golden'
p117
I118
sS'peering'
p118
I119
sS'stray'
p119
I120
sS'straw'
p120
I121
sS'hind'
p121
I686
sS'duck'
p122
I122
sS'limb'
p123
I123
sS'dachshund'
p124
I124
sS'market'
p125
I125
sS'bent'
p126
I126
sS'standing'
p127
I127
sS'fed'
p128
I128
sS'from'
p129
I130
sS'scaffolding'
p130
I131
sS'army'
p131
I132
sS'wicker'
p132
I133
sS'sweater'
p133
I134
sS'two'
p134
I135
sS'next'
p135
I136
sS'few'
p136
I137
sS'camera'
p137
I138
sS'prey'
p138
I139
sS'wondering'
p139
I140
sS'eagles'
p140
I141
sS'type'
p141
I142
sS'more'
p142
I143
sS'sharing'
p143
I144
sS'door'
p144
I145
sS'porch'
p145
I146
sS'grabbing'
p146
I147
sS'stone'
p147
I757
sS'chocolate'
p148
I149
sS'holding'
p149
I848
sS'train'
p150
I150
sS'stick'
p151
I151
sS'baby'
p152
I152
sS'midst'
p153
I153
sS'hold'
p154
I558
sS'osprey'
p155
I155
sS'women'
p156
I156
sS'swooping'
p157
I157
sS'cay'
p158
I158
sS'locked'
p159
I159
sS'room'
p160
I160
sS'this'
p161
I162
sS'car'
p162
I163
sS'wintry'
p163
I837
sS'cat'
p164
I164
sS'other'
p165
I847
sS'nine'
p166
I165
sS'can'
p167
I166
sS'backwards'
p168
I167
sS'chin'
p169
I168
sS'seagull'
p170
I169
sS'bites'
p171
I170
sS'beautiful'
p172
I171
sS'grassy'
p173
I172
sS'pushes'
p174
I173
sS'halloween'
p175
I174
sS'near'
p176
I608
sS'high'
p177
I175
sS'tag'
p178
I177
sS'posing'
p179
I178
sS'something'
p180
I179
sS'admires'
p181
I180
sS'pond'
p182
I181
sS'tan'
p183
I182
sS'paws'
p184
I183
sS'clothing'
p185
I184
sS'pink'
p186
I185
sS'huge'
p187
I186
sS'end'
p188
I187
sS'winter'
p189
I188
sS'relaxes'
p190
I810
sS'sit'
p191
I189
sS'holds'
p192
I190
sS'preening'
p193
I191
sS'glowing'
p194
I192
sS'forest'
p195
I193
sS'animal'
p196
I194
sS'hugs'
p197
I195
sS'gate'
p198
I196
sS'toddler'
p199
I197
sS'beach'
p200
I198
sS'stock'
p201
I199
sS'profile'
p202
I200
sS'egret'
p203
I201
sS'plant'
p204
I202
sS'pokes'
p205
I203
sS'staircase'
p206
I204
sS'sunny'
p207
I485
sS'waters'
p208
I206
sS'after'
p209
I207
sS'lab'
p210
I318
sS'lay'
p211
I209
sS'waves'
p212
I340
sS'floral'
p213
I211
sS'hawk'
p214
I212
sS'terrier'
p215
I213
sS'aviator'
p216
I214
sS'headdress'
p217
I215
sS'stroked'
p218
I282
sS'a'
p219
I217
sS'chasing'
p220
I218
sS'neck'
p221
I219
sS'herding'
p222
I537
sS'coat'
p223
I220
sS'eats'
p224
I222
sS'st'
p225
I223
sS'shore'
p226
I224
sS'green'
p227
I225
sS'basket'
p228
I226
sS'closeup'
p229
I227
sS'pulled'
p230
I228
sS'playing'
p231
I229
sS'patio'
p232
I230
sS'cute'
p233
I231
sS'office'
p234
I232
sS'deck'
p235
I233
sS'over'
p236
I234
sS'displayed'
p237
I235
sS'held'
p238
I236
sS'mallard'
p239
I237
sS'through'
p240
I238
sS'costume'
p241
I38
sS'smiling'
p242
I241
sS'its'
p243
I242
sS'before'
p244
I243
sS'limbs'
p245
I244
sS'chihuahua'
p246
I245
sS'group'
p247
I246
sS'monitor'
p248
I247
sS'carpeted'
p249
I248
sS'broom'
p250
I249
sS'heron'
p251
I250
sS'yorkshire'
p252
I251
sS'window'
p253
I252
sS'marsh'
p254
I253
sS'turban'
p255
I254
sS'orange'
p256
I255
sS'covered'
p257
I256
sS'might'
p258
I257
sS'into'
p259
I774
sS'belly'
p260
I633
sS'ball'
p261
I639
sS'apron'
p262
I259
sS'them'
p263
I260
sS'someone'
p264
I261
sS'doghouse'
p265
I263
sS'food'
p266
I264
sS'material'
p267
I265
sS'petted'
p268
I266
sS'underneath'
p269
I267
sS'band'
p270
I268
sS'snowball'
p271
I269
sS'hands'
p272
I270
sS'flea'
p273
I271
sS'feeder'
p274
I494
sS'cage'
p275
I273
sS'day'
p276
I274
sS'bank'
p277
I275
sS'bread'
p278
I276
sS'name'
p279
I277
sS'lies'
p280
I778
sS'drop'
p281
I278
sS'rocks'
p282
I279
sS'sniffing'
p283
I280
sS'fuzz'
p284
I281
sS'rock'
p285
I283
sS'shaking'
p286
I284
sS'side'
p287
I285
sS'bone'
p288
I286
sS'directly'
p289
I347
sS'house'
p290
I289
sS'fish'
p291
I290
sS'hard'
p292
I291
sS'multicolored'
p293
I292
sS'goose'
p294
I293
sS'owner'
p295
I348
sS'books'
p296
I295
sS'schemed'
p297
I296
sS'scratching'
p298
I297
sS'girl'
p299
I298
sS'enclosure'
p300
I299
sS'sandy'
p301
I300
sS'out'
p302
I301
sS'necked'
p303
I503
sS'flower'
p304
I303
sS'haired'
p305
I304
sS'pigeon'
p306
I305
sS'looking'
p307
I306
sS'stuff'
p308
I505
sS'print'
p309
I309
sS'get'
p310
I483
sS'red'
p311
I310
sS'foreground'
p312
I311
sS'drink'
p313
I336
sS'dirt'
p314
I313
sS'seagulls'
p315
I314
sS'pug'
p316
I315
sS'cart'
p317
I96
sS'crouches'
p318
I317
sS'pendant'
p319
I117
sS'heads'
p320
I357
sS'hand'
p321
I642
sS'steering'
p322
I322
sS'retrieves'
p323
I323
sS'fabric'
p324
I785
sS'shaggy'
p325
I325
sS'yard'
p326
I326
sS'shelves'
p327
I327
sS'backside'
p328
I328
sS'could'
p329
I329
sS'ostrich'
p330
I330
sS'benji'
p331
I331
sS'american'
p332
I332
sS'tied'
p333
I208
sS'ears'
p334
I507
sS'fallen'
p335
I334
sS'top'
p336
I361
sS'feed'
p337
I337
sS'flying'
p338
I788
sS'coming'
p339
I210
sS'scene'
p340
I341
sS'one'
p341
I343
sS'feet'
p342
I344
sS'gazes'
p343
I345
sS'fast'
p344
I789
sS'another'
p345
I288
sS'comforter'
p346
I294
sS'thick'
p347
I349
sS'lounging'
p348
I790
sS'open'
p349
I351
sS'sheep'
p350
I353
sS'little'
p351
I355
sS'toy'
p352
I356
sS'sheet'
p353
I319
sS'monkey'
p354
I358
sS'bite'
p355
I335
sS'windowsill'
p356
I585
sS'plastic'
p357
I362
sS'stork'
p358
I363
sS'their'
p359
I364
sS'leash'
p360
I365
sS'station'
p361
I366
sS'saint'
p362
I367
sS'critter'
p363
I16
sS'man'
p364
I216
sS'dogs'
p365
I370
sS'beard'
p366
I371
sS'bumble'
p367
I372
sS'eyes'
p368
I373
sS'stuffed'
p369
I374
sS'that'
p370
I376
sS'bulldog'
p371
I377
sS'shallow'
p372
I378
sS'kitchen'
p373
I546
sS'part'
p374
I380
sS'eyed'
p375
I381
sS'somewhat'
p376
I382
sS'branches'
p377
I383
sS'flowers'
p378
I385
sS'stairs'
p379
I386
sS'white'
p380
I368
sS'lays'
p381
I817
sS'schnauzer'
p382
I388
sS'wide'
p383
I308
sS'legs'
p384
I369
sS'tree'
p385
I391
sS'grey'
p386
I392
sS'seated'
p387
I3
sS'bee'
p388
I394
sS'coats'
p389
I395
sS'iron'
p390
I396
sS'outdoors'
p391
I397
sS'asleep'
p392
I517
sS'toward'
p393
I399
sS'wandering'
p394
I400
sS'are'
p395
I518
sS'and'
p396
I401
sS'bridge'
p397
I402
sS'sea'
p398
I519
sS'curtains'
p399
I404
sS'awaking'
p400
I405
sS'greyhound'
p401
I406
sS'ginger'
p402
I407
sS'comfortable'
p403
I408
sS'seed'
p404
I409
sS'distorted'
p405
I410
sS'slab'
p406
I412
sS'viewed'
p407
I161
sS'skullcap'
p408
I414
sS'lie'
p409
I415
sS'person'
p410
I656
sS'mid'
p411
I418
sS'camouflage'
p412
I419
sS'couch'
p413
I420
sS'dining'
p414
I421
sS'chest'
p415
I422
sS'edge'
p416
I657
sS'take'
p417
I424
sS'cream'
p418
I840
sS'upside'
p419
I425
sS'glassware'
p420
I426
sS'folders'
p421
I427
sS'play'
p422
I428
sS'towards'
p423
I429
sS'multiple'
p424
I430
sS'combat'
p425
I431
sS'opposite'
p426
I432
sS'track'
p427
I433
sS'object'
p428
I434
sS'goldfinch'
p429
I435
sS'most'
p430
I436
sS'mouth'
p431
I437
sS'printed'
p432
I438
sS'sheets'
p433
I439
sS'tall'
p434
I440
sS'flannel'
p435
I700
sS'bluebird'
p436
I441
sS'patterned'
p437
I442
sS'lawn'
p438
I443
sS'clear'
p439
I445
sS'metal'
p440
I112
sS'dog'
p441
I447
sS'wing'
p442
I352
sS'guiltily'
p443
I449
sS'barren'
p444
I450
sS'attacking'
p445
I451
sS'incomplete'
p446
I452
sS'walking'
p447
I453
sS'selection'
p448
I454
sS'shot'
p449
I455
sS'perches'
p450
I456
sS'padded'
p451
I44
sS'hopes'
p452
I806
sS'colors'
p453
I50
sS'parked'
p454
I460
sS'headshot'
p455
I461
sS'fuzzy'
p456
I462
sS'superimposed'
p457
I66
sS'rough'
p458
I464
sS'ground'
p459
I85
sS'coloring'
p460
I95
sS'unfinished'
p461
I467
sS'jay'
p462
I468
sS'daily'
p463
I862
sS'behind'
p464
I528
sS'jackethalter'
p465
I470
sS'than'
p466
I387
sS'bernard'
p467
I472
sS'bush'
p468
I473
sS'wood'
p469
I474
sS'black'
p470
I475
sS'pretty'
p471
I476
sS'blinds'
p472
I477
sS'wearing'
p473
I478
sS'steel'
p474
I479
sS'his'
p475
I480
sS'pets'
p476
I530
sS'colorful'
p477
I482
sS'distance'
p478
I389
sS'sleepy'
p479
I668
sS'watch'
p480
I22
sS'stripes'
p481
I486
sS'trees'
p482
I487
sS'beam'
p483
I488
sS'rest'
p484
I670
sS'cushion'
p485
I490
sS'beak'
p486
I491
sS'striped'
p487
I492
sS'sill'
p488
I493
sS'gray'
p489
I495
sS'runs'
p490
I496
sS'gloved'
p491
I497
sS'bar'
p492
I498
sS'leather'
p493
I499
sS'tabby'
p494
I500
sS'licking'
p495
I501
sS'bay'
p496
I502
sS'emu'
p497
I302
sS'bag'
p498
I504
sS'penguins'
p499
I307
sS'river'
p500
I506
sS'view'
p501
I333
sS'spotted'
p502
I508
sS'set'
p503
I509
sS'scruffy'
p504
I510
sS'fluffy'
p505
I511
sS'groggy'
p506
I512
sS'ends'
p507
I513
sS'canine'
p508
I514
sS'up'
p509
I815
sS'computer'
p510
I516
sS'bare'
p511
I398
sS'bed'
p512
I393
sS'thistle'
p513
I403
sS'seal'
p514
I520
sS'sleeping'
p515
I619
sS'close'
p516
I521
sS'leopard'
p517
I641
sS'wire'
p518
I523
sS'onto'
p519
I524
sS'away'
p520
I525
sS'birds'
p521
I527
sS'outside'
p522
I469
sS'plywood'
p523
I529
sS'closed'
p524
I481
sS'between'
p525
I531
sS'reading'
p526
I533
sS'across'
p527
I534
sS'pants'
p528
I535
sS'knowing'
p529
I536
sS'lazy'
p530
I384
sS'checkered'
p531
I538
sS'vertical'
p532
I539
sS'screen'
p533
I540
sS'<NUL>'
p534
I0
sS'dome'
p535
I541
sS'outfit'
p536
I542
sS'licks'
p537
I543
sS'yawning'
p538
I544
sS'uncompleted'
p539
I545
sS'floats'
p540
I93
sS'faced'
p541
I547
sS'both'
p542
I548
sS'piece'
p543
I820
sS'cow'
p544
I550
sS'taking'
p545
I551
sS'puppy'
p546
I849
sS's'
p547
I552
sS'sleeps'
p548
I663
sS'faces'
p549
I640
sS'grooming'
p550
I554
sS'finds'
p551
I555
sS'among'
p552
I556
sS'stretches'
p553
I557
sS'tone'
p554
I559
sS'stream'
p555
I560
sS'bell'
p556
I561
sS'color'
p557
I562
sS'sweet'
p558
I563
sS'each'
p559
I747
sS'walk'
p560
I564
sS'pole'
p561
I565
sS'stretched'
p562
I566
sS'brindle'
p563
I567
sS'blonde'
p564
I568
sS'bench'
p565
I682
sS'consuming'
p566
I570
sS'light'
p567
I571
sS'naps'
p568
I572
sS'eager'
p569
I683
sS'bumblebee'
p570
I574
sS'three'
p571
I575
sS'tiny'
p572
I576
sS'quickly'
p573
I577
sS'tropical'
p574
I578
sS'pc'
p575
I579
sS'treat'
p576
I580
sS'interest'
p577
I581
sS'peaceful'
p578
I582
sS'curtain'
p579
I583
sS'feather'
p580
I584
sS'staring'
p581
I342
sS'roped'
p582
I586
sS'resting'
p583
I587
sS'shopping'
p584
I588
sS'relaxing'
p585
I589
sS'sunshine'
p586
I590
sS'worker'
p587
I591
sS'tiger'
p588
I593
sS'suspension'
p589
I339
sS'pilot'
p590
I595
sS'multi'
p591
I596
sS'plaid'
p592
I597
sS'fur'
p593
I598
sS'look'
p594
I599
sS'turtles'
p595
I600
sS'frozen'
p596
I53
sS'plain'
p597
I56
sS'straight'
p598
I603
sS'air'
p599
I605
sS'rope'
p600
I606
sS'siamese'
p601
I607
sS'while'
p602
I78
sS'miniature'
p603
I609
sS'pressed'
p604
I610
sS'wild'
p605
I612
sS'cats'
p606
I791
sS'chilling'
p607
I613
sS'pickup'
p608
I615
sS'is'
p609
I616
sS'it'
p610
I617
sS'surface'
p611
I618
sS'ducks'
p612
I154
sS'middle'
p613
I620
sS'reads'
p614
I621
sS'itself'
p615
I622
sS'in'
p616
I623
sS'sits'
p617
I624
sS'hens'
p618
I625
sS'hound'
p619
I627
sS'shirt'
p620
I628
sS'paw'
p621
I221
sS'bowl'
p622
I630
sS'same'
p623
I631
sS'beside'
p624
I632
sS'batting'
p625
I413
sS'pecking'
p626
I262
sS'big'
p627
I690
sS'several'
p628
I635
sS'showing'
p629
I691
sS'longed'
p630
I865
sS'hallway'
p631
I637
sS'barbed'
p632
I638
sS'wires'
p633
I592
sS'bald'
p634
I312
sS'upon'
p635
I321
sS'alert'
p636
I320
sS'running'
p637
I643
sS'fruit'
p638
I644
sS'uses'
p639
I645
sS'climbing'
p640
I646
sS'on'
p641
I756
sS'collar'
p642
I648
sS'hummingbird'
p643
I649
sS'off'
p644
I650
sS'center'
p645
I651
sS'older'
p646
I652
sS'chickens'
p647
I653
sS'fighting'
p648
I654
sS'ocean'
p649
I655
sS'concrete'
p650
I417
sS'materials'
p651
I423
sS'roosters'
p652
I240
sS'telephone'
p653
I659
sS'eagle'
p654
I614
sS'left'
p655
I661
sS'mom'
p656
I695
sS'just'
p657
I287
sS'less'
p658
I664
sS'being'
p659
I665
sS'photo'
p660
I666
sS'domestic'
p661
I484
sS'flies'
p662
I669
sS'gulls'
p663
I489
sS'snow'
p664
I671
sS'abar'
p665
I672
sS'front'
p666
I673
sS'circling'
p667
I674
sS'gated'
p668
I675
sS'halfway'
p669
I676
sS'family'
p670
I677
sS'mother'
p671
I658
sS'photographer'
p672
I553
sS'point'
p673
I679
sS'sky'
p674
I680
sS'lake'
p675
I681
sS'desktop'
p676
I569
sS'source'
p677
I573
sS'spread'
p678
I684
sS'pile'
p679
I685
sS'wet'
p680
I390
sS'has'
p681
I354
sS'hat'
p682
I688
sS'around'
p683
I626
sS'wall'
p684
I634
sS'couple'
p685
I636
sS'looks'
p686
I239
sS'outpost'
p687
I471
sS'dark'
p688
I692
sS'boxer'
p689
I693
sS'five'
p690
I694
sS'background'
p691
I662
sS'desk'
p692
I667
sS'poses'
p693
I697
sS'lady'
p694
I698
sS'wings'
p695
I699
sS'furniture'
p696
I687
sS'shoulder'
p697
I701
sS'vertically'
p698
I702
sS'tail'
p699
I703
sS'towel'
p700
I704
sS'like'
p701
I705
sS'sofa'
p702
I706
sS'glove'
p703
I707
sS'adult'
p704
I868
sS'facing'
p705
I708
sS'pavement'
p706
I709
sS'steps'
p707
I710
sS'nose'
p708
I711
sS'moggie'
p709
I712
sS'bunch'
p710
I713
sS'tower'
p711
I714
sS'kennel'
p712
I715
sS'perked'
p713
I716
sS'right'
p714
I717
sS'petting'
p715
I718
sS'people'
p716
I719
sS'some'
p717
I720
sS'serene'
p718
I532
sS'dead'
p719
I722
sS'litter'
p720
I723
sS'husk'
p721
I724
sS'warmer'
p722
I725
sS'sight'
p723
I726
sS'table'
p724
I727
sS'underbelly'
p725
I728
sS'curious'
p726
I729
sS'humming'
p727
I730
sS'twig'
p728
I731
sS'amongst'
p729
I800
sS'for'
p730
I732
sS'bottom'
p731
I733
sS'pet'
p732
I734
sS'bedding'
p733
I735
sS'lean'
p734
I736
sS'pen'
p735
I737
sS'adorable'
p736
I738
sS'christmas'
p737
I739
sS'blurry'
p738
I740
sS'fencepost'
p739
I741
sS'be'
p740
I742
sS'aman'
p741
I604
sS'eating'
p742
I68
sS'raincoat'
p743
I745
sS'corn'
p744
I746
sS'pose'
p745
I89
sS'rug'
p746
I748
sS'stem'
p747
I100
sS'step'
p748
I750
sS'lounges'
p749
I751
sS'eye'
p750
I752
sS'post'
p751
I753
sS'by'
p752
I754
sS'hiding'
p753
I755
sS'wades'
p754
I647
sS'about'
p755
I148
sS'getting'
p756
I758
sS'of'
p757
I759
sS'truck'
p758
I760
sS'birdbath'
p759
I761
sS'seeds'
p760
I762
sS'wolf'
p761
I763
sS'beige'
p762
I764
sS'puppies'
p763
I765
sS'shiny'
p764
I766
sS'or'
p765
I129
sS'road'
p766
I768
sS'swimming'
p767
I769
sS'owl'
p768
I770
sS'quietly'
p769
I771
sS'lands'
p770
I772
sS'moss'
p771
I773
sS'image'
p772
I258
sS'legged'
p773
I775
sS'framed'
p774
I272
sS'down'
p775
I777
sS'swan'
p776
I749
sS'abed'
p777
I779
sS'brush'
p778
I780
sS'old'
p779
I781
sS'feeders'
p780
I782
sS'sprawled'
p781
I783
sS'inspects'
p782
I784
sS'log'
p783
I324
sS'her'
p784
I786
sS'area'
p785
I787
sS'there'
p786
I338
sS'long'
p787
I346
sS'tame'
p788
I350
sS'handler'
p789
I522
sS'low'
p790
I792
sS'way'
p791
I793
sS'cloths'
p792
I359
sS'notices'
p793
I795
sS'head'
p794
I796
sS'kittens'
p795
I797
sS'poster'
p796
I798
sS'atop'
p797
I799
sS'landing'
p798
I611
sS'back'
p799
I721
sS'curiously'
p800
I801
sS'construction'
p801
I802
sS'link'
p802
I803
sS'elderly'
p803
I804
sS'branch'
p804
I805
sS'grate'
p805
I458
sS'crane'
p806
I807
sS'stand'
p807
I808
sS'with'
p808
I809
sS'calico'
p809
I416
sS'penguin'
p810
I811
sS'lifeguard'
p811
I812
sS'inside'
p812
I813
sS'landscaped'
p813
I814
sS'yorkie'
p814
I515
sS'below'
p815
I816
sS'dirty'
p816
I446
sS'site'
p817
I818
sS'blackbird'
p818
I819
sS'grass'
p819
I549
sS'enthusiastic'
p820
I821
sS'algae'
p821
I822
sS'geese'
p822
I823
sS'labrador'
p823
I824
sS'affectionate'
p824
I825
sS'khaki'
p825
I743
sS'stripped'
p826
I826
sS'watches'
p827
I827
sS'an'
p828
I828
sS'fly'
p829
I829
sS'as'
p830
I830
sS'regurgitating'
p831
I831
sS'curb'
p832
I832
sS'at'
p833
I833
sS'walks'
p834
I834
sS'graceful'
p835
I835
sS'floating'
p836
I836
sS'face'
p837
I448
sS'flock'
p838
I838
sS'film'
p839
I839
sS'constructed'
p840
I444
sS'floor'
p841
I841
sS'swats'
p842
I176
sS'clings'
p843
I843
sS'icy'
p844
I844
sS'field'
p845
I845
sS'nap'
p846
I846
sS'book'
p847
I767
sS'carpeting'
p848
I689
sS'tarp'
p849
I526
sS'picture'
p850
I850
sS'cardinals'
p851
I851
sS'crouching'
p852
I852
sS'reclines'
p853
I853
sS'stay'
p854
I854
sS'lens'
p855
I855
sS'smelling'
p856
I856
sS'prepares'
p857
I857
sS'structure'
p858
I858
sS'building'
p859
I859
sS'younger'
p860
I860
sS'napping'
p861
I861
sS'ledge'
p862
I696
sS'together'
p863
I360
sS'jacket'
p864
I863
sS'purple'
p865
I864
sS'carrying'
p866
I411
sS'lying'
p867
I866
sS'teeth'
p868
I867
sS'flapping'
p869
I375
s.