(dp0
S'and'
p1
I1
sS'is'
p2
I2
sS'an'
p3
I4
sS'high'
p4
I5
sS'front'
p5
I36
sS'bright'
p6
I7
sS'catching'
p7
I8
sS'bats'
p8
I9
sS'at'
p9
I10
sS'in'
p10
I11
sS'air'
p11
I46
sS'its'
p12
I13
sS'carpet'
p13
I14
sS'standing'
p14
I15
sS'fabric'
p15
I16
sS'flooring'
p16
I17
sS'away'
p17
I18
sS'him'
p18
I39
sS'to'
p19
I20
sS'wood'
p20
I21
sS'black'
p21
I22
sS'orange'
p22
I23
sS'white'
p23
I24
sS'interested'
p24
I25
sS'wearing'
p25
I26
sS'brown'
p26
I27
sS'play'
p27
I28
sS'ball'
p28
I29
sS'string'
p29
I30
sS'dangling'
p30
I31
sS'<NUL>'
p31
I0
sS'leaping'
p32
I32
sS'jumping'
p33
I33
sS'leaps'
p34
I34
sS'jog'
p35
I3
sS'catch'
p36
I6
sS'backyard'
p37
I37
sS'with'
p38
I38
sS'collar'
p39
I19
sS'a'
p40
I40
sS'on'
p41
I41
sS'frayed'
p42
I42
sS'colored'
p43
I43
sS'of'
p44
I44
sS'dog'
p45
I45
sS'cat'
p46
I12
sS'pawed'
p47
I35
sS'mouth'
p48
I47
sS'the'
p49
I48
sS'piece'
p50
I49
sS'playing'
p51
I50
sS'nearby'
p52
I51
s.