ccollections
defaultdict
p0
(c__builtin__
list
p1
tp2
Rp3
S'sheep'
p4
(lp5
S'2008_000084.jpg'
p6
aS'2008_000099.jpg'
p7
aS'2008_000257.jpg'
p8
aS'2008_000915.jpg'
p9
aS'2008_001601.jpg'
p10
aS'2008_002150.jpg'
p11
aS'2008_002343.jpg'
p12
aS'2008_002430.jpg'
p13
aS'2008_003147.jpg'
p14
aS'2008_004007.jpg'
p15
aS'2008_004292.jpg'
p16
aS'2008_004453.jpg'
p17
aS'2008_004621.jpg'
p18
aS'2008_004629.jpg'
p19
aS'2008_004854.jpg'
p20
aS'2008_005447.jpg'
p21
aS'2008_005494.jpg'
p22
aS'2008_005505.jpg'
p23
aS'2008_005635.jpg'
p24
aS'2008_005736.jpg'
p25
aS'2008_005938.jpg'
p26
aS'2008_006059.jpg'
p27
aS'2008_006070.jpg'
p28
aS'2008_006100.jpg'
p29
aS'2008_006327.jpg'
p30
aS'2008_006477.jpg'
p31
aS'2008_006835.jpg'
p32
aS'2008_006892.jpg'
p33
aS'2008_006939.jpg'
p34
aS'2008_007069.jpg'
p35
aS'2008_007070.jpg'
p36
aS'2008_007245.jpg'
p37
aS'2008_007430.jpg'
p38
aS'2008_007497.jpg'
p39
aS'2008_007677.jpg'
p40
aS'2008_007693.jpg'
p41
aS'2008_007806.jpg'
p42
aS'2008_007814.jpg'
p43
aS'2008_007909.jpg'
p44
aS'2008_007985.jpg'
p45
aS'2008_008109.jpg'
p46
aS'2008_008319.jpg'
p47
aS'2008_008322.jpg'
p48
aS'2008_008601.jpg'
p49
aS'2008_008613.jpg'
p50
aS'2008_008623.jpg'
p51
aS'2008_008666.jpg'
p52
aS'2008_008668.jpg'
p53
aS'2008_008714.jpg'
p54
aS'2008_008744.jpg'
p55
asS'horse'
p56
(lp57
S'2008_000219.jpg'
p58
aS'2008_000912.jpg'
p59
aS'2008_001031.jpg'
p60
aS'2008_001235.jpg'
p61
aS'2008_001682.jpg'
p62
aS'2008_002338.jpg'
p63
aS'2008_002459.jpg'
p64
aS'2008_002666.jpg'
p65
aS'2008_002697.jpg'
p66
aS'2008_003283.jpg'
p67
aS'2008_003447.jpg'
p68
aS'2008_003461.jpg'
p69
aS'2008_003805.jpg'
p70
aS'2008_004166.jpg'
p71
aS'2008_004175.jpg'
p72
aS'2008_004470.jpg'
p73
aS'2008_004539.jpg'
p74
aS'2008_004764.jpg'
p75
aS'2008_004868.jpg'
p76
aS'2008_004911.jpg'
p77
aS'2008_005168.jpg'
p78
aS'2008_005498.jpg'
p79
aS'2008_005642.jpg'
p80
aS'2008_006096.jpg'
p81
aS'2008_006397.jpg'
p82
aS'2008_006429.jpg'
p83
aS'2008_006434.jpg'
p84
aS'2008_006912.jpg'
p85
aS'2008_006991.jpg'
p86
aS'2008_007004.jpg'
p87
aS'2008_007319.jpg'
p88
aS'2008_007524.jpg'
p89
aS'2008_007576.jpg'
p90
aS'2008_007588.jpg'
p91
aS'2008_007612.jpg'
p92
aS'2008_007625.jpg'
p93
aS'2008_007816.jpg'
p94
aS'2008_008012.jpg'
p95
aS'2008_008034.jpg'
p96
aS'2008_008040.jpg'
p97
aS'2008_008052.jpg'
p98
aS'2008_008075.jpg'
p99
aS'2008_008232.jpg'
p100
aS'2008_008262.jpg'
p101
aS'2008_008296.jpg'
p102
aS'2008_008318.jpg'
p103
aS'2008_008393.jpg'
p104
aS'2008_008431.jpg'
p105
aS'2008_008453.jpg'
p106
aS'2008_008487.jpg'
p107
asS'bicycle'
p108
(lp109
S'2008_000090.jpg'
p110
aS'2008_000725.jpg'
p111
aS'2008_001226.jpg'
p112
aS'2008_001402.jpg'
p113
aS'2008_001523.jpg'
p114
aS'2008_001626.jpg'
p115
aS'2008_002129.jpg'
p116
aS'2008_002679.jpg'
p117
aS'2008_002894.jpg'
p118
aS'2008_003072.jpg'
p119
aS'2008_003140.jpg'
p120
aS'2008_003351.jpg'
p121
aS'2008_003617.jpg'
p122
aS'2008_003819.jpg'
p123
aS'2008_004113.jpg'
p124
aS'2008_004363.jpg'
p125
aS'2008_004441.jpg'
p126
aS'2008_004592.jpg'
p127
aS'2008_004603.jpg'
p128
aS'2008_004654.jpg'
p129
aS'2008_004656.jpg'
p130
aS'2008_004995.jpg'
p131
aS'2008_005175.jpg'
p132
aS'2008_005276.jpg'
p133
aS'2008_006064.jpg'
p134
aS'2008_006154.jpg'
p135
aS'2008_006234.jpg'
p136
aS'2008_006254.jpg'
p137
aS'2008_006467.jpg'
p138
aS'2008_007067.jpg'
p139
aS'2008_007103.jpg'
p140
aS'2008_007222.jpg'
p141
aS'2008_007421.jpg'
p142
aS'2008_007470.jpg'
p143
aS'2008_007719.jpg'
p144
aS'2008_007935.jpg'
p145
aS'2008_007993.jpg'
p146
aS'2008_008097.jpg'
p147
aS'2008_008131.jpg'
p148
aS'2008_008320.jpg'
p149
aS'2008_008368.jpg'
p150
aS'2008_008528.jpg'
p151
aS'2008_008572.jpg'
p152
aS'2008_008619.jpg'
p153
aS'2008_008671.jpg'
p154
aS'2008_008708.jpg'
p155
aS'2008_008718.jpg'
p156
aS'2008_008725.jpg'
p157
aS'2008_008753.jpg'
p158
aS'2008_008755.jpg'
p159
asS'aeroplane'
p160
(lp161
S'2008_000716.jpg'
p162
aS'2008_001227.jpg'
p163
aS'2008_001380.jpg'
p164
aS'2008_001448.jpg'
p165
aS'2008_001468.jpg'
p166
aS'2008_001801.jpg'
p167
aS'2008_001971.jpg'
p168
aS'2008_001985.jpg'
p169
aS'2008_002358.jpg'
p170
aS'2008_002454.jpg'
p171
aS'2008_003275.jpg'
p172
aS'2008_003369.jpg'
p173
aS'2008_003575.jpg'
p174
aS'2008_003655.jpg'
p175
aS'2008_003703.jpg'
p176
aS'2008_003788.jpg'
p177
aS'2008_003905.jpg'
p178
aS'2008_004165.jpg'
p179
aS'2008_004348.jpg'
p180
aS'2008_004532.jpg'
p181
aS'2008_005538.jpg'
p182
aS'2008_005905.jpg'
p183
aS'2008_005907.jpg'
p184
aS'2008_005916.jpg'
p185
aS'2008_006401.jpg'
p186
aS'2008_006548.jpg'
p187
aS'2008_006619.jpg'
p188
aS'2008_006621.jpg'
p189
aS'2008_006623.jpg'
p190
aS'2008_006700.jpg'
p191
aS'2008_006933.jpg'
p192
aS'2008_007095.jpg'
p193
aS'2008_007442.jpg'
p194
aS'2008_007504.jpg'
p195
aS'2008_007507.jpg'
p196
aS'2008_007629.jpg'
p197
aS'2008_008044.jpg'
p198
aS'2008_008048.jpg'
p199
aS'2008_008096.jpg'
p200
aS'2008_008146.jpg'
p201
aS'2008_008231.jpg'
p202
aS'2008_008247.jpg'
p203
aS'2008_008344.jpg'
p204
aS'2008_008373.jpg'
p205
aS'2008_008424.jpg'
p206
aS'2008_008432.jpg'
p207
aS'2008_008446.jpg'
p208
aS'2008_008471.jpg'
p209
aS'2008_008501.jpg'
p210
aS'2008_008546.jpg'
p211
asS'cow'
p212
(lp213
S'2008_000335.jpg'
p214
aS'2008_000711.jpg'
p215
aS'2008_000876.jpg'
p216
aS'2008_000905.jpg'
p217
aS'2008_000919.jpg'
p218
aS'2008_000964.jpg'
p219
aS'2008_001359.jpg'
p220
aS'2008_002270.jpg'
p221
aS'2008_002278.jpg'
p222
aS'2008_002686.jpg'
p223
aS'2008_002709.jpg'
p224
aS'2008_003094.jpg'
p225
aS'2008_003297.jpg'
p226
aS'2008_004450.jpg'
p227
aS'2008_004701.jpg'
p228
aS'2008_004841.jpg'
p229
aS'2008_005010.jpg'
p230
aS'2008_005097.jpg'
p231
aS'2008_005105.jpg'
p232
aS'2008_005375.jpg'
p233
aS'2008_005714.jpg'
p234
aS'2008_006210.jpg'
p235
aS'2008_006290.jpg'
p236
aS'2008_006355.jpg'
p237
aS'2008_006496.jpg'
p238
aS'2008_006547.jpg'
p239
aS'2008_006904.jpg'
p240
aS'2008_007009.jpg'
p241
aS'2008_007025.jpg'
p242
aS'2008_007026.jpg'
p243
aS'2008_007031.jpg'
p244
aS'2008_007398.jpg'
p245
aS'2008_007544.jpg'
p246
aS'2008_007596.jpg'
p247
aS'2008_007729.jpg'
p248
aS'2008_008115.jpg'
p249
aS'2008_008121.jpg'
p250
aS'2008_008132.jpg'
p251
aS'2008_008169.jpg'
p252
aS'2008_008199.jpg'
p253
aS'2008_008241.jpg'
p254
aS'2008_008370.jpg'
p255
aS'2008_008428.jpg'
p256
aS'2008_008482.jpg'
p257
aS'2008_008521.jpg'
p258
aS'2008_008541.jpg'
p259
aS'2008_008617.jpg'
p260
aS'2008_008635.jpg'
p261
aS'2008_008654.jpg'
p262
aS'2008_008685.jpg'
p263
asS'sofa'
p264
(lp265
S'2008_000128.jpg'
p266
aS'2008_000421.jpg'
p267
aS'2008_000465.jpg'
p268
aS'2008_000493.jpg'
p269
aS'2008_000541.jpg'
p270
aS'2008_000636.jpg'
p271
aS'2008_000648.jpg'
p272
aS'2008_000704.jpg'
p273
aS'2008_000857.jpg'
p274
aS'2008_001660.jpg'
p275
aS'2008_001781.jpg'
p276
aS'2008_001869.jpg'
p277
aS'2008_002119.jpg'
p278
aS'2008_002776.jpg'
p279
aS'2008_002903.jpg'
p280
aS'2008_002922.jpg'
p281
aS'2008_002929.jpg'
p282
aS'2008_003271.jpg'
p283
aS'2008_003393.jpg'
p284
aS'2008_003709.jpg'
p285
aS'2008_003814.jpg'
p286
aS'2008_004416.jpg'
p287
aS'2008_004497.jpg'
p288
aS'2008_004632.jpg'
p289
aS'2008_004670.jpg'
p290
aS'2008_004881.jpg'
p291
aS'2008_004938.jpg'
p292
aS'2008_005090.jpg'
p293
aS'2008_005926.jpg'
p294
aS'2008_006038.jpg'
p295
aS'2008_006436.jpg'
p296
aS'2008_006616.jpg'
p297
aS'2008_007021.jpg'
p298
aS'2008_007043.jpg'
p299
aS'2008_007050.jpg'
p300
aS'2008_007169.jpg'
p301
aS'2008_007837.jpg'
p302
aS'2008_008103.jpg'
p303
aS'2008_008106.jpg'
p304
aS'2008_008162.jpg'
p305
aS'2008_008271.jpg'
p306
aS'2008_008313.jpg'
p307
aS'2008_008517.jpg'
p308
aS'2008_008538.jpg'
p309
aS'2008_008567.jpg'
p310
aS'2008_008608.jpg'
p311
aS'2008_008622.jpg'
p312
aS'2008_008628.jpg'
p313
aS'2008_008642.jpg'
p314
aS'2008_008649.jpg'
p315
asS'bus'
p316
(lp317
S'2008_000032.jpg'
p318
aS'2008_000075.jpg'
p319
aS'2008_000132.jpg'
p320
aS'2008_001820.jpg'
p321
aS'2008_001842.jpg'
p322
aS'2008_002179.jpg'
p323
aS'2008_002412.jpg'
p324
aS'2008_002451.jpg'
p325
aS'2008_003060.jpg'
p326
aS'2008_003067.jpg'
p327
aS'2008_003321.jpg'
p328
aS'2008_003373.jpg'
p329
aS'2008_003489.jpg'
p330
aS'2008_003673.jpg'
p331
aS'2008_003691.jpg'
p332
aS'2008_003924.jpg'
p333
aS'2008_004613.jpg'
p334
aS'2008_004614.jpg'
p335
aS'2008_004679.jpg'
p336
aS'2008_004844.jpg'
p337
aS'2008_004968.jpg'
p338
aS'2008_005074.jpg'
p339
aS'2008_005196.jpg'
p340
aS'2008_005277.jpg'
p341
aS'2008_005360.jpg'
p342
aS'2008_005676.jpg'
p343
aS'2008_005761.jpg'
p344
aS'2008_005891.jpg'
p345
aS'2008_005933.jpg'
p346
aS'2008_005984.jpg'
p347
aS'2008_006483.jpg'
p348
aS'2008_006635.jpg'
p349
aS'2008_006748.jpg'
p350
aS'2008_007133.jpg'
p351
aS'2008_007254.jpg'
p352
aS'2008_007352.jpg'
p353
aS'2008_007356.jpg'
p354
aS'2008_007375.jpg'
p355
aS'2008_007969.jpg'
p356
aS'2008_007997.jpg'
p357
aS'2008_008043.jpg'
p358
aS'2008_008066.jpg'
p359
aS'2008_008113.jpg'
p360
aS'2008_008252.jpg'
p361
aS'2008_008343.jpg'
p362
aS'2008_008549.jpg'
p363
aS'2008_008674.jpg'
p364
aS'2008_008679.jpg'
p365
aS'2008_008719.jpg'
p366
aS'2008_008748.jpg'
p367
asS'dog'
p368
(lp369
S'2008_000053.jpg'
p370
aS'2008_000138.jpg'
p371
aS'2008_000270.jpg'
p372
aS'2008_000620.jpg'
p373
aS'2008_000641.jpg'
p374
aS'2008_000706.jpg'
p375
aS'2008_000808.jpg'
p376
aS'2008_000897.jpg'
p377
aS'2008_001070.jpg'
p378
aS'2008_001220.jpg'
p379
aS'2008_001285.jpg'
p380
aS'2008_001479.jpg'
p381
aS'2008_001676.jpg'
p382
aS'2008_001895.jpg'
p383
aS'2008_002395.jpg'
p384
aS'2008_002441.jpg'
p385
aS'2008_002536.jpg'
p386
aS'2008_002859.jpg'
p387
aS'2008_003133.jpg'
p388
aS'2008_003576.jpg'
p389
aS'2008_003852.jpg'
p390
aS'2008_004044.jpg'
p391
aS'2008_004498.jpg'
p392
aS'2008_004528.jpg'
p393
aS'2008_004653.jpg'
p394
aS'2008_004745.jpg'
p395
aS'2008_004760.jpg'
p396
aS'2008_004833.jpg'
p397
aS'2008_004931.jpg'
p398
aS'2008_004950.jpg'
p399
aS'2008_005046.jpg'
p400
aS'2008_005065.jpg'
p401
aS'2008_005160.jpg'
p402
aS'2008_005240.jpg'
p403
aS'2008_005563.jpg'
p404
aS'2008_005798.jpg'
p405
aS'2008_005823.jpg'
p406
aS'2008_005831.jpg'
p407
aS'2008_005882.jpg'
p408
aS'2008_005890.jpg'
p409
aS'2008_006130.jpg'
p410
aS'2008_006356.jpg'
p411
aS'2008_006511.jpg'
p412
aS'2008_006602.jpg'
p413
aS'2008_007478.jpg'
p414
aS'2008_007519.jpg'
p415
aS'2008_007537.jpg'
p416
aS'2008_007567.jpg'
p417
aS'2008_007694.jpg'
p418
aS'2008_007871.jpg'
p419
asS'cat'
p420
(lp421
S'2008_000116.jpg'
p422
aS'2008_000182.jpg'
p423
aS'2008_000227.jpg'
p424
aS'2008_000345.jpg'
p425
aS'2008_000670.jpg'
p426
aS'2008_001290.jpg'
p427
aS'2008_001335.jpg'
p428
aS'2008_001592.jpg'
p429
aS'2008_001836.jpg'
p430
aS'2008_001885.jpg'
p431
aS'2008_002067.jpg'
p432
aS'2008_002201.jpg'
p433
aS'2008_002294.jpg'
p434
aS'2008_002329.jpg'
p435
aS'2008_002410.jpg'
p436
aS'2008_002749.jpg'
p437
aS'2008_002845.jpg'
p438
aS'2008_003063.jpg'
p439
aS'2008_003244.jpg'
p440
aS'2008_003607.jpg'
p441
aS'2008_003622.jpg'
p442
aS'2008_003772.jpg'
p443
aS'2008_004303.jpg'
p444
aS'2008_004328.jpg'
p445
aS'2008_004347.jpg'
p446
aS'2008_004635.jpg'
p447
aS'2008_004873.jpg'
p448
aS'2008_004990.jpg'
p449
aS'2008_005003.jpg'
p450
aS'2008_005181.jpg'
p451
aS'2008_005252.jpg'
p452
aS'2008_005386.jpg'
p453
aS'2008_005449.jpg'
p454
aS'2008_005469.jpg'
p455
aS'2008_005614.jpg'
p456
aS'2008_005857.jpg'
p457
aS'2008_006081.jpg'
p458
aS'2008_006194.jpg'
p459
aS'2008_006384.jpg'
p460
aS'2008_006403.jpg'
p461
aS'2008_006956.jpg'
p462
aS'2008_006999.jpg'
p463
aS'2008_007039.jpg'
p464
aS'2008_007176.jpg'
p465
aS'2008_007324.jpg'
p466
aS'2008_007363.jpg'
p467
aS'2008_007496.jpg'
p468
aS'2008_007589.jpg'
p469
aS'2008_007855.jpg'
p470
aS'2008_007888.jpg'
p471
asS'person'
p472
(lp473
S'2008_000376.jpg'
p474
aS'2008_000413.jpg'
p475
aS'2008_000422.jpg'
p476
aS'2008_000448.jpg'
p477
aS'2008_000547.jpg'
p478
aS'2008_000748.jpg'
p479
aS'2008_000806.jpg'
p480
aS'2008_000825.jpg'
p481
aS'2008_000834.jpg'
p482
aS'2008_000917.jpg'
p483
aS'2008_000987.jpg'
p484
aS'2008_001035.jpg'
p485
aS'2008_001074.jpg'
p486
aS'2008_001249.jpg'
p487
aS'2008_001301.jpg'
p488
aS'2008_001318.jpg'
p489
aS'2008_001349.jpg'
p490
aS'2008_001501.jpg'
p491
aS'2008_001837.jpg'
p492
aS'2008_001932.jpg'
p493
aS'2008_002283.jpg'
p494
aS'2008_002576.jpg'
p495
aS'2008_002931.jpg'
p496
aS'2008_002988.jpg'
p497
aS'2008_003342.jpg'
p498
aS'2008_003418.jpg'
p499
aS'2008_003442.jpg'
p500
aS'2008_003533.jpg'
p501
aS'2008_004002.jpg'
p502
aS'2008_004123.jpg'
p503
aS'2008_004130.jpg'
p504
aS'2008_004176.jpg'
p505
aS'2008_004307.jpg'
p506
aS'2008_004330.jpg'
p507
aS'2008_004387.jpg'
p508
aS'2008_004426.jpg'
p509
aS'2008_004740.jpg'
p510
aS'2008_005107.jpg'
p511
aS'2008_005412.jpg'
p512
aS'2008_005758.jpg'
p513
aS'2008_006181.jpg'
p514
aS'2008_006554.jpg'
p515
aS'2008_006708.jpg'
p516
aS'2008_006732.jpg'
p517
aS'2008_007277.jpg'
p518
aS'2008_007476.jpg'
p519
aS'2008_007584.jpg'
p520
aS'2008_007923.jpg'
p521
aS'2008_008275.jpg'
p522
aS'2008_008440.jpg'
p523
asS'train'
p524
(lp525
S'2008_000343.jpg'
p526
aS'2008_000916.jpg'
p527
aS'2008_001164.jpg'
p528
aS'2008_001625.jpg'
p529
aS'2008_001850.jpg'
p530
aS'2008_001866.jpg'
p531
aS'2008_001926.jpg'
p532
aS'2008_002158.jpg'
p533
aS'2008_002222.jpg'
p534
aS'2008_002325.jpg'
p535
aS'2008_002452.jpg'
p536
aS'2008_002900.jpg'
p537
aS'2008_003068.jpg'
p538
aS'2008_003826.jpg'
p539
aS'2008_003992.jpg'
p540
aS'2008_004214.jpg'
p541
aS'2008_004367.jpg'
p542
aS'2008_004610.jpg'
p543
aS'2008_004914.jpg'
p544
aS'2008_005282.jpg'
p545
aS'2008_005968.jpg'
p546
aS'2008_006010.jpg'
p547
aS'2008_006158.jpg'
p548
aS'2008_006553.jpg'
p549
aS'2008_006655.jpg'
p550
aS'2008_006818.jpg'
p551
aS'2008_007011.jpg'
p552
aS'2008_007201.jpg'
p553
aS'2008_007231.jpg'
p554
aS'2008_007247.jpg'
p555
aS'2008_007280.jpg'
p556
aS'2008_007521.jpg'
p557
aS'2008_007759.jpg'
p558
aS'2008_007779.jpg'
p559
aS'2008_008001.jpg'
p560
aS'2008_008020.jpg'
p561
aS'2008_008123.jpg'
p562
aS'2008_008152.jpg'
p563
aS'2008_008200.jpg'
p564
aS'2008_008203.jpg'
p565
aS'2008_008223.jpg'
p566
aS'2008_008321.jpg'
p567
aS'2008_008527.jpg'
p568
aS'2008_008545.jpg'
p569
aS'2008_008583.jpg'
p570
aS'2008_008618.jpg'
p571
aS'2008_008632.jpg'
p572
aS'2008_008662.jpg'
p573
aS'2008_008739.jpg'
p574
aS'2008_008751.jpg'
p575
asS'diningtable'
p576
(lp577
S'2008_000043.jpg'
p578
aS'2008_000418.jpg'
p579
aS'2008_000817.jpg'
p580
aS'2008_000885.jpg'
p581
aS'2008_001077.jpg'
p582
aS'2008_001083.jpg'
p583
aS'2008_001155.jpg'
p584
aS'2008_001230.jpg'
p585
aS'2008_001451.jpg'
p586
aS'2008_001723.jpg'
p587
aS'2008_001758.jpg'
p588
aS'2008_001809.jpg'
p589
aS'2008_002079.jpg'
p590
aS'2008_002362.jpg'
p591
aS'2008_002384.jpg'
p592
aS'2008_002567.jpg'
p593
aS'2008_002892.jpg'
p594
aS'2008_003224.jpg'
p595
aS'2008_003477.jpg'
p596
aS'2008_003534.jpg'
p597
aS'2008_003753.jpg'
p598
aS'2008_003881.jpg'
p599
aS'2008_004216.jpg'
p600
aS'2008_004289.jpg'
p601
aS'2008_004293.jpg'
p602
aS'2008_004321.jpg'
p603
aS'2008_004564.jpg'
p604
aS'2008_004588.jpg'
p605
aS'2008_004776.jpg'
p606
aS'2008_004851.jpg'
p607
aS'2008_004948.jpg'
p608
aS'2008_005081.jpg'
p609
aS'2008_005348.jpg'
p610
aS'2008_005570.jpg'
p611
aS'2008_005975.jpg'
p612
aS'2008_006008.jpg'
p613
aS'2008_006192.jpg'
p614
aS'2008_006750.jpg'
p615
aS'2008_006969.jpg'
p616
aS'2008_007048.jpg'
p617
aS'2008_007097.jpg'
p618
aS'2008_007291.jpg'
p619
aS'2008_007402.jpg'
p620
aS'2008_007692.jpg'
p621
aS'2008_008098.jpg'
p622
aS'2008_008266.jpg'
p623
aS'2008_008362.jpg'
p624
aS'2008_008363.jpg'
p625
aS'2008_008365.jpg'
p626
aS'2008_008388.jpg'
p627
asS'bottle'
p628
(lp629
S'2008_000112.jpg'
p630
aS'2008_000202.jpg'
p631
aS'2008_000272.jpg'
p632
aS'2008_000495.jpg'
p633
aS'2008_000691.jpg'
p634
aS'2008_000795.jpg'
p635
aS'2008_000911.jpg'
p636
aS'2008_001333.jpg'
p637
aS'2008_001444.jpg'
p638
aS'2008_001486.jpg'
p639
aS'2008_001910.jpg'
p640
aS'2008_002467.jpg'
p641
aS'2008_002864.jpg'
p642
aS'2008_002870.jpg'
p643
aS'2008_003182.jpg'
p644
aS'2008_003290.jpg'
p645
aS'2008_004090.jpg'
p646
aS'2008_004487.jpg'
p647
aS'2008_004581.jpg'
p648
aS'2008_004659.jpg'
p649
aS'2008_004795.jpg'
p650
aS'2008_004979.jpg'
p651
aS'2008_004991.jpg'
p652
aS'2008_005023.jpg'
p653
aS'2008_005140.jpg'
p654
aS'2008_005347.jpg'
p655
aS'2008_005549.jpg'
p656
aS'2008_005560.jpg'
p657
aS'2008_005752.jpg'
p658
aS'2008_005812.jpg'
p659
aS'2008_005939.jpg'
p660
aS'2008_005945.jpg'
p661
aS'2008_006004.jpg'
p662
aS'2008_006024.jpg'
p663
aS'2008_006072.jpg'
p664
aS'2008_006102.jpg'
p665
aS'2008_006182.jpg'
p666
aS'2008_006282.jpg'
p667
aS'2008_006331.jpg'
p668
aS'2008_006890.jpg'
p669
aS'2008_006992.jpg'
p670
aS'2008_007076.jpg'
p671
aS'2008_007147.jpg'
p672
aS'2008_007168.jpg'
p673
aS'2008_007286.jpg'
p674
aS'2008_007394.jpg'
p675
aS'2008_007737.jpg'
p676
aS'2008_007986.jpg'
p677
aS'2008_008072.jpg'
p678
aS'2008_008526.jpg'
p679
asS'car'
p680
(lp681
S'2008_000085.jpg'
p682
aS'2008_000163.jpg'
p683
aS'2008_000203.jpg'
p684
aS'2008_000252.jpg'
p685
aS'2008_000346.jpg'
p686
aS'2008_000457.jpg'
p687
aS'2008_000953.jpg'
p688
aS'2008_000982.jpg'
p689
aS'2008_001062.jpg'
p690
aS'2008_001208.jpg'
p691
aS'2008_001274.jpg'
p692
aS'2008_001632.jpg'
p693
aS'2008_001830.jpg'
p694
aS'2008_001941.jpg'
p695
aS'2008_002202.jpg'
p696
aS'2008_002368.jpg'
p697
aS'2008_002672.jpg'
p698
aS'2008_003061.jpg'
p699
aS'2008_003329.jpg'
p700
aS'2008_003378.jpg'
p701
aS'2008_003415.jpg'
p702
aS'2008_003775.jpg'
p703
aS'2008_003986.jpg'
p704
aS'2008_004020.jpg'
p705
aS'2008_004080.jpg'
p706
aS'2008_004100.jpg'
p707
aS'2008_004559.jpg'
p708
aS'2008_004850.jpg'
p709
aS'2008_004858.jpg'
p710
aS'2008_004862.jpg'
p711
aS'2008_005234.jpg'
p712
aS'2008_005641.jpg'
p713
aS'2008_005747.jpg'
p714
aS'2008_005960.jpg'
p715
aS'2008_006037.jpg'
p716
aS'2008_006087.jpg'
p717
aS'2008_006220.jpg'
p718
aS'2008_006336.jpg'
p719
aS'2008_006438.jpg'
p720
aS'2008_006649.jpg'
p721
aS'2008_006762.jpg'
p722
aS'2008_006827.jpg'
p723
aS'2008_006936.jpg'
p724
aS'2008_007119.jpg'
p725
aS'2008_007323.jpg'
p726
aS'2008_007346.jpg'
p727
aS'2008_007488.jpg'
p728
aS'2008_007757.jpg'
p729
aS'2008_007804.jpg'
p730
aS'2008_008338.jpg'
p731
asS'pottedplant'
p732
(lp733
S'2008_000196.jpg'
p734
aS'2008_000275.jpg'
p735
aS'2008_000491.jpg'
p736
aS'2008_000564.jpg'
p737
aS'2008_000960.jpg'
p738
aS'2008_001078.jpg'
p739
aS'2008_001460.jpg'
p740
aS'2008_001541.jpg'
p741
aS'2008_001784.jpg'
p742
aS'2008_001862.jpg'
p743
aS'2008_001966.jpg'
p744
aS'2008_002026.jpg'
p745
aS'2008_002653.jpg'
p746
aS'2008_002882.jpg'
p747
aS'2008_002897.jpg'
p748
aS'2008_003144.jpg'
p749
aS'2008_003665.jpg'
p750
aS'2008_003689.jpg'
p751
aS'2008_004171.jpg'
p752
aS'2008_004380.jpg'
p753
aS'2008_004619.jpg'
p754
aS'2008_004634.jpg'
p755
aS'2008_005111.jpg'
p756
aS'2008_005214.jpg'
p757
aS'2008_005680.jpg'
p758
aS'2008_005874.jpg'
p759
aS'2008_005914.jpg'
p760
aS'2008_005954.jpg'
p761
aS'2008_006068.jpg'
p762
aS'2008_006112.jpg'
p763
aS'2008_006337.jpg'
p764
aS'2008_006611.jpg'
p765
aS'2008_006807.jpg'
p766
aS'2008_007042.jpg'
p767
aS'2008_007226.jpg'
p768
aS'2008_007281.jpg'
p769
aS'2008_007390.jpg'
p770
aS'2008_007461.jpg'
p771
aS'2008_007525.jpg'
p772
aS'2008_007621.jpg'
p773
aS'2008_007823.jpg'
p774
aS'2008_007831.jpg'
p775
aS'2008_007882.jpg'
p776
aS'2008_007990.jpg'
p777
aS'2008_008024.jpg'
p778
aS'2008_008237.jpg'
p779
aS'2008_008330.jpg'
p780
aS'2008_008341.jpg'
p781
aS'2008_008402.jpg'
p782
aS'2008_008641.jpg'
p783
asS'tvmonitor'
p784
(lp785
S'2008_000305.jpg'
p786
aS'2008_001021.jpg'
p787
aS'2008_001461.jpg'
p788
aS'2008_001641.jpg'
p789
aS'2008_001688.jpg'
p790
aS'2008_001704.jpg'
p791
aS'2008_001772.jpg'
p792
aS'2008_001920.jpg'
p793
aS'2008_002066.jpg'
p794
aS'2008_002328.jpg'
p795
aS'2008_002547.jpg'
p796
aS'2008_002817.jpg'
p797
aS'2008_003037.jpg'
p798
aS'2008_003466.jpg'
p799
aS'2008_003609.jpg'
p800
aS'2008_003995.jpg'
p801
aS'2008_004004.jpg'
p802
aS'2008_004008.jpg'
p803
aS'2008_004097.jpg'
p804
aS'2008_004301.jpg'
p805
aS'2008_004501.jpg'
p806
aS'2008_004506.jpg'
p807
aS'2008_004550.jpg'
p808
aS'2008_004665.jpg'
p809
aS'2008_004908.jpg'
p810
aS'2008_004910.jpg'
p811
aS'2008_004930.jpg'
p812
aS'2008_005008.jpg'
p813
aS'2008_005094.jpg'
p814
aS'2008_005231.jpg'
p815
aS'2008_005254.jpg'
p816
aS'2008_005329.jpg'
p817
aS'2008_005625.jpg'
p818
aS'2008_005639.jpg'
p819
aS'2008_005660.jpg'
p820
aS'2008_005817.jpg'
p821
aS'2008_006136.jpg'
p822
aS'2008_006159.jpg'
p823
aS'2008_006624.jpg'
p824
aS'2008_006887.jpg'
p825
aS'2008_006948.jpg'
p826
aS'2008_007196.jpg'
p827
aS'2008_007282.jpg'
p828
aS'2008_007332.jpg'
p829
aS'2008_007446.jpg'
p830
aS'2008_007916.jpg'
p831
aS'2008_007987.jpg'
p832
aS'2008_008269.jpg'
p833
aS'2008_008439.jpg'
p834
aS'2008_008524.jpg'
p835
asS'chair'
p836
(lp837
S'2008_000904.jpg'
p838
aS'2008_000976.jpg'
p839
aS'2008_001073.jpg'
p840
aS'2008_001320.jpg'
p841
aS'2008_001338.jpg'
p842
aS'2008_001467.jpg'
p843
aS'2008_001563.jpg'
p844
aS'2008_001737.jpg'
p845
aS'2008_001841.jpg'
p846
aS'2008_001928.jpg'
p847
aS'2008_002071.jpg'
p848
aS'2008_002442.jpg'
p849
aS'2008_002481.jpg'
p850
aS'2008_002508.jpg'
p851
aS'2008_002521.jpg'
p852
aS'2008_002613.jpg'
p853
aS'2008_002674.jpg'
p854
aS'2008_002758.jpg'
p855
aS'2008_003073.jpg'
p856
aS'2008_003146.jpg'
p857
aS'2008_003178.jpg'
p858
aS'2008_003245.jpg'
p859
aS'2008_003264.jpg'
p860
aS'2008_003472.jpg'
p861
aS'2008_003504.jpg'
p862
aS'2008_003726.jpg'
p863
aS'2008_003796.jpg'
p864
aS'2008_003821.jpg'
p865
aS'2008_003998.jpg'
p866
aS'2008_004122.jpg'
p867
aS'2008_004445.jpg'
p868
aS'2008_004457.jpg'
p869
aS'2008_004985.jpg'
p870
aS'2008_005414.jpg'
p871
aS'2008_005616.jpg'
p872
aS'2008_006076.jpg'
p873
aS'2008_006691.jpg'
p874
aS'2008_006841.jpg'
p875
aS'2008_007166.jpg'
p876
aS'2008_007361.jpg'
p877
aS'2008_007378.jpg'
p878
aS'2008_007415.jpg'
p879
aS'2008_007691.jpg'
p880
aS'2008_007742.jpg'
p881
aS'2008_007922.jpg'
p882
aS'2008_007941.jpg'
p883
aS'2008_007949.jpg'
p884
aS'2008_008470.jpg'
p885
aS'2008_008589.jpg'
p886
aS'2008_008593.jpg'
p887
asS'bird'
p888
(lp889
S'2008_000095.jpg'
p890
aS'2008_001020.jpg'
p891
aS'2008_001673.jpg'
p892
aS'2008_001829.jpg'
p893
aS'2008_002399.jpg'
p894
aS'2008_002471.jpg'
p895
aS'2008_002970.jpg'
p896
aS'2008_003087.jpg'
p897
aS'2008_003160.jpg'
p898
aS'2008_003222.jpg'
p899
aS'2008_003232.jpg'
p900
aS'2008_003484.jpg'
p901
aS'2008_003580.jpg'
p902
aS'2008_003997.jpg'
p903
aS'2008_004087.jpg'
p904
aS'2008_004362.jpg'
p905
aS'2008_004452.jpg'
p906
aS'2008_004551.jpg'
p907
aS'2008_004689.jpg'
p908
aS'2008_004783.jpg'
p909
aS'2008_004805.jpg'
p910
aS'2008_004973.jpg'
p911
aS'2008_005186.jpg'
p912
aS'2008_005208.jpg'
p913
aS'2008_005279.jpg'
p914
aS'2008_005757.jpg'
p915
aS'2008_005774.jpg'
p916
aS'2008_005924.jpg'
p917
aS'2008_006186.jpg'
p918
aS'2008_006281.jpg'
p919
aS'2008_006667.jpg'
p920
aS'2008_006924.jpg'
p921
aS'2008_007003.jpg'
p922
aS'2008_007205.jpg'
p923
aS'2008_007317.jpg'
p924
aS'2008_007498.jpg'
p925
aS'2008_007587.jpg'
p926
aS'2008_007752.jpg'
p927
aS'2008_007839.jpg'
p928
aS'2008_007854.jpg'
p929
aS'2008_007948.jpg'
p930
aS'2008_008002.jpg'
p931
aS'2008_008185.jpg'
p932
aS'2008_008194.jpg'
p933
aS'2008_008347.jpg'
p934
aS'2008_008354.jpg'
p935
aS'2008_008376.jpg'
p936
aS'2008_008404.jpg'
p937
aS'2008_008461.jpg'
p938
aS'2008_008490.jpg'
p939
asS'boat'
p940
(lp941
S'2008_000195.jpg'
p942
aS'2008_000405.jpg'
p943
aS'2008_000437.jpg'
p944
aS'2008_001041.jpg'
p945
aS'2008_001135.jpg'
p946
aS'2008_001160.jpg'
p947
aS'2008_001202.jpg'
p948
aS'2008_001799.jpg'
p949
aS'2008_001858.jpg'
p950
aS'2008_002482.jpg'
p951
aS'2008_002504.jpg'
p952
aS'2008_002773.jpg'
p953
aS'2008_002850.jpg'
p954
aS'2008_003062.jpg'
p955
aS'2008_003100.jpg'
p956
aS'2008_003701.jpg'
p957
aS'2008_003849.jpg'
p958
aS'2008_003858.jpg'
p959
aS'2008_003951.jpg'
p960
aS'2008_003988.jpg'
p961
aS'2008_004014.jpg'
p962
aS'2008_004291.jpg'
p963
aS'2008_004812.jpg'
p964
aS'2008_004969.jpg'
p965
aS'2008_004983.jpg'
p966
aS'2008_005321.jpg'
p967
aS'2008_005536.jpg'
p968
aS'2008_005593.jpg'
p969
aS'2008_005664.jpg'
p970
aS'2008_005683.jpg'
p971
aS'2008_005695.jpg'
p972
aS'2008_005720.jpg'
p973
aS'2008_005863.jpg'
p974
aS'2008_005923.jpg'
p975
aS'2008_005959.jpg'
p976
aS'2008_006014.jpg'
p977
aS'2008_006163.jpg'
p978
aS'2008_006289.jpg'
p979
aS'2008_006404.jpg'
p980
aS'2008_006488.jpg'
p981
aS'2008_006654.jpg'
p982
aS'2008_006720.jpg'
p983
aS'2008_006730.jpg'
p984
aS'2008_006877.jpg'
p985
aS'2008_006925.jpg'
p986
aS'2008_007056.jpg'
p987
aS'2008_007101.jpg'
p988
aS'2008_007599.jpg'
p989
aS'2008_007841.jpg'
p990
aS'2008_007953.jpg'
p991
asS'motorbike'
p992
(lp993
S'2008_000109.jpg'
p994
aS'2008_000144.jpg'
p995
aS'2008_000237.jpg'
p996
aS'2008_000328.jpg'
p997
aS'2008_000393.jpg'
p998
aS'2008_001203.jpg'
p999
aS'2008_001586.jpg'
p1000
aS'2008_001691.jpg'
p1001
aS'2008_002752.jpg'
p1002
aS'2008_002804.jpg'
p1003
aS'2008_002926.jpg'
p1004
aS'2008_002948.jpg'
p1005
aS'2008_002972.jpg'
p1006
aS'2008_003320.jpg'
p1007
aS'2008_003892.jpg'
p1008
aS'2008_003939.jpg'
p1009
aS'2008_004084.jpg'
p1010
aS'2008_004615.jpg'
p1011
aS'2008_005139.jpg'
p1012
aS'2008_005213.jpg'
p1013
aS'2008_005427.jpg'
p1014
aS'2008_005429.jpg'
p1015
aS'2008_005902.jpg'
p1016
aS'2008_006345.jpg'
p1017
aS'2008_006441.jpg'
p1018
aS'2008_006458.jpg'
p1019
aS'2008_006517.jpg'
p1020
aS'2008_006526.jpg'
p1021
aS'2008_006857.jpg'
p1022
aS'2008_006944.jpg'
p1023
aS'2008_007054.jpg'
p1024
aS'2008_007138.jpg'
p1025
aS'2008_007184.jpg'
p1026
aS'2008_007241.jpg'
p1027
aS'2008_007313.jpg'
p1028
aS'2008_007344.jpg'
p1029
aS'2008_007348.jpg'
p1030
aS'2008_007459.jpg'
p1031
aS'2008_007485.jpg'
p1032
aS'2008_007739.jpg'
p1033
aS'2008_007746.jpg'
p1034
aS'2008_007955.jpg'
p1035
aS'2008_008154.jpg'
p1036
aS'2008_008177.jpg'
p1037
aS'2008_008227.jpg'
p1038
aS'2008_008246.jpg'
p1039
aS'2008_008391.jpg'
p1040
aS'2008_008450.jpg'
p1041
aS'2008_008525.jpg'
p1042
aS'2008_008552.jpg'
p1043
as.